	.file	"ds18x20.c"
__SP_H__ = 0x3e
__SP_L__ = 0x3d
__SREG__ = 0x3f
__tmp_reg__ = 0
__zero_reg__ = 1
	.text
.Ltext0:
	.cfi_sections	.debug_frame
	.type	DS18X20_raw_to_decicelsius, @function
DS18X20_raw_to_decicelsius:
.LFB16:
	.file 1 "../ds18x20/ds18x20.c"
	.loc 1 497 0
	.cfi_startproc
.LVL0:
/* prologue: function */
/* frame size = 0 */
/* stack size = 0 */
.L__stack_usage = 0
	movw r30,r22
	.loc 1 503 0
	ldd r18,Z+1
	ldi r19,0
	mov r19,r18
	clr r18
	ld r25,Z
	or r18,r25
.LVL1:
	.loc 1 507 0
	cpi r24,lo8(16)
	brne .L2
	.loc 1 509 0
	andi r18,254
.LVL2:
	.loc 1 510 0
	movw r20,r18
	lsl r20
	rol r21
	lsl r20
	rol r21
	lsl r20
	rol r21
.LVL3:
	.loc 1 511 0
	ldd r25,Z+6
	ldi r18,lo8(12)
	ldi r19,0
	sub r18,r25
	sbc r19,__zero_reg__
	add r18,r20
	adc r19,r21
.LVL4:
.L2:
	.loc 1 515 0
	tst r19
	brge .L12
.LVL5:
	.loc 1 518 0
	neg r19
	neg r18
	sbc r19,__zero_reg__
.LVL6:
	.loc 1 516 0
	ldi r22,lo8(1)
.LVL7:
	rjmp .L3
.LVL8:
.L12:
	.loc 1 521 0
	ldi r22,0
.LVL9:
.L3:
	.loc 1 525 0
	cpi r24,lo8(40)
	breq .L4
	.loc 1 525 0 is_stmt 0 discriminator 1
	cpi r24,lo8(34)
	brne .L5
.L4:
	.loc 1 526 0 is_stmt 1
	ldd r24,Z+4
.LVL10:
	andi r24,lo8(96)
	cpi r24,lo8(32)
	breq .L6
	cpi r24,lo8(64)
	breq .L7
	cpse r24,__zero_reg__
	rjmp .L5
	.loc 1 528 0
	andi r18,248
.LVL11:
	.loc 1 529 0
	rjmp .L5
.L6:
	.loc 1 531 0
	andi r18,252
.LVL12:
	.loc 1 532 0
	rjmp .L5
.L7:
	.loc 1 534 0
	andi r18,254
.LVL13:
.L5:
	.loc 1 542 0
	movw r24,r18
	swap r25
	swap r24
	andi r24,0x0f
	eor r24,r25
	andi r25,0x0f
	eor r24,r25
.LVL14:
	.loc 1 543 0
	movw r20,r24
	lsl r20
	rol r21
	lsl r24
	rol r25
	lsl r24
	rol r25
	lsl r24
	rol r25
.LVL15:
	add r24,r20
	adc r25,r21
.LVL16:
	.loc 1 547 0
	andi r18,15
	clr r19
.LVL17:
	movw r20,r18
	lsr r21
	mov r21,r20
	clr r20
	ror r21
	ror r20
	mov r19,r18
	clr r18
	lsl r19
	add r18,r20
	adc r19,r21
.LVL18:
	.loc 1 548 0
	cpse r22,__zero_reg__
	rjmp .L9
	.loc 1 549 0
	subi r19,-2
.LVL19:
	.loc 1 551 0
	mov r18,r19
	clr r19
	lsr r18
	lsr r18
.LVL20:
	.loc 1 552 0
	add r18,r24
	adc r19,r25
.LVL21:
.L11:
	.loc 1 558 0
	movw r24,r18
	subi r24,-38
	sbci r25,-3
	cpi r24,9
	sbci r25,7
	brlo .L13
	.loc 1 559 0
	ldi r24,lo8(-48)
	ldi r25,lo8(7)
	ret
.L13:
	.loc 1 561 0
	mov r24,r18
	mov r25,r19
	ret
.LVL22:
.L9:
	.loc 1 551 0
	mov r18,r19
	clr r19
	lsr r18
	lsr r18
.LVL23:
	.loc 1 552 0
	add r24,r18
	adc r25,r19
.LVL24:
	.loc 1 555 0
	clr r18
	clr r19
	sub r18,r24
	sbc r19,r25
.LVL25:
	rjmp .L11
	.cfi_endproc
.LFE16:
	.size	DS18X20_raw_to_decicelsius, .-DS18X20_raw_to_decicelsius
	.type	read_scratchpad, @function
read_scratchpad:
.LFB15:
	.loc 1 467 0
	.cfi_startproc
.LVL26:
	push r14
.LCFI0:
	.cfi_def_cfa_offset 3
	.cfi_offset 14, -2
	push r15
.LCFI1:
	.cfi_def_cfa_offset 4
	.cfi_offset 15, -3
	push r16
.LCFI2:
	.cfi_def_cfa_offset 5
	.cfi_offset 16, -4
	push r17
.LCFI3:
	.cfi_def_cfa_offset 6
	.cfi_offset 17, -5
	push r28
.LCFI4:
	.cfi_def_cfa_offset 7
	.cfi_offset 28, -6
	push r29
.LCFI5:
	.cfi_def_cfa_offset 8
	.cfi_offset 29, -7
/* prologue: function */
/* frame size = 0 */
/* stack size = 6 */
.L__stack_usage = 6
	mov r14,r22
	mov r15,r23
	mov r16,r20
	.loc 1 472 0
	cbi 0xb,5
.LVL27:
.LBB16:
.LBB17:
	.file 2 "/avr8-gnu-toolchain-linux_x86/avr/include/util/delay_basic.h"
	.loc 2 83 0
	ldi r18,lo8(10)
/* #APP */
 ;  83 "/avr8-gnu-toolchain-linux_x86/avr/include/util/delay_basic.h" 1
	1: dec r18
	brne 1b
 ;  0 "" 2
.LVL28:
/* #NOAPP */
.LBE17:
.LBE16:
	.loc 1 474 0
	movw r22,r24
.LVL29:
	ldi r24,lo8(-66)
.LVL30:
	call ow_command
.LVL31:
	.loc 1 476 0
	tst r16
	breq .L16
	mov r28,r14
	mov r29,r15
	ldi r17,0
.LVL32:
.L17:
	.loc 1 477 0 discriminator 2
	call ow_byte_rd
.LVL33:
	st Y+,r24
	.loc 1 476 0 discriminator 2
	subi r17,lo8(-(1))
.LVL34:
	cpse r17,r16
	rjmp .L17
.LVL35:
.L16:
	.loc 1 479 0
	ldi r22,lo8(9)
	ldi r23,0
	mov r24,r14
	mov r25,r15
	call crc8
.LVL36:
	tst r24
	breq .L19
	.loc 1 480 0
	ldi r24,lo8(3)
	rjmp .L18
.L19:
	.loc 1 482 0
	ldi r24,0
.L18:
.LVL37:
	.loc 1 486 0
	sbi 0xb,5
/* epilogue start */
	.loc 1 490 0
	pop r29
	pop r28
	pop r17
	pop r16
.LVL38:
	pop r15
	pop r14
	ret
	.cfi_endproc
.LFE15:
	.size	read_scratchpad, .-read_scratchpad
.global	send_power_10ms
	.type	send_power_10ms, @function
send_power_10ms:
.LFB11:
	.loc 1 44 0
	.cfi_startproc
/* prologue: function */
/* frame size = 0 */
/* stack size = 0 */
.L__stack_usage = 0
	.loc 1 46 0
	sbi 0xa,5
	.loc 1 47 0
	sbi 0xb,5
.LVL39:
.LBB18:
.LBB19:
	.file 3 "/avr8-gnu-toolchain-linux_x86/avr/include/util/delay.h"
	.loc 3 163 0
	ldi r24,lo8(17999)
	ldi r25,hi8(17999)
	1: sbiw r24,1
	brne 1b
	rjmp .
	nop
.LBE19:
.LBE18:
	.loc 1 53 0
	cbi 0xb,5
.LVL40:
.LBB20:
.LBB21:
	.loc 2 83 0
	ldi r24,lo8(10)
/* #APP */
 ;  83 "/avr8-gnu-toolchain-linux_x86/avr/include/util/delay_basic.h" 1
	1: dec r24
	brne 1b
 ;  0 "" 2
.LVL41:
/* #NOAPP */
	ret
.LBE21:
.LBE20:
	.cfi_endproc
.LFE11:
	.size	send_power_10ms, .-send_power_10ms
.global	DS18X20_get_power_status
	.type	DS18X20_get_power_status, @function
DS18X20_get_power_status:
.LFB12:
	.loc 1 374 0
	.cfi_startproc
.LVL42:
	push r28
.LCFI6:
	.cfi_def_cfa_offset 3
	.cfi_offset 28, -2
	push r29
.LCFI7:
	.cfi_def_cfa_offset 4
	.cfi_offset 29, -3
/* prologue: function */
/* frame size = 0 */
/* stack size = 2 */
.L__stack_usage = 2
	movw r28,r24
	.loc 1 378 0
	cbi 0xb,5
.LVL43:
.LBB22:
.LBB23:
	.loc 2 83 0
	ldi r24,lo8(10)
.LVL44:
/* #APP */
 ;  83 "/avr8-gnu-toolchain-linux_x86/avr/include/util/delay_basic.h" 1
	1: dec r24
	brne 1b
 ;  0 "" 2
.LVL45:
/* #NOAPP */
.LBE23:
.LBE22:
	.loc 1 380 0
/* #APP */
 ;  380 "../ds18x20/ds18x20.c" 1
	cli
 ;  0 "" 2
	.loc 1 382 0
/* #NOAPP */
	call OWReset
.LVL46:
	.loc 1 387 0
	movw r22,r28
	ldi r24,lo8(-76)
	call ow_command
.LVL47:
	.loc 1 388 0
	ldi r24,lo8(1)
	call ow_bit_io
.LVL48:
	mov r28,r24
.LVL49:
	.loc 1 390 0
	call OWReset
.LVL50:
	.loc 1 395 0
/* #APP */
 ;  395 "../ds18x20/ds18x20.c" 1
	sei
 ;  0 "" 2
	.loc 1 398 0
/* #NOAPP */
	sbi 0xb,5
	.loc 1 401 0
	ldi r24,lo8(1)
	cpse r28,__zero_reg__
	rjmp .L22
	ldi r24,0
.L22:
/* epilogue start */
	.loc 1 402 0
	pop r29
	pop r28
.LVL51:
	ret
	.cfi_endproc
.LFE12:
	.size	DS18X20_get_power_status, .-DS18X20_get_power_status
.global	DS18X20_start_meas
	.type	DS18X20_start_meas, @function
DS18X20_start_meas:
.LFB13:
	.loc 1 407 0
	.cfi_startproc
.LVL52:
	push r17
.LCFI8:
	.cfi_def_cfa_offset 3
	.cfi_offset 17, -2
	push r28
.LCFI9:
	.cfi_def_cfa_offset 4
	.cfi_offset 28, -3
	push r29
.LCFI10:
	.cfi_def_cfa_offset 5
	.cfi_offset 29, -4
/* prologue: function */
/* frame size = 0 */
/* stack size = 3 */
.L__stack_usage = 3
	mov r17,r24
	movw r28,r22
	.loc 1 411 0
	cbi 0xb,5
.LVL53:
.LBB24:
.LBB25:
	.loc 2 83 0
	ldi r25,lo8(10)
/* #APP */
 ;  83 "/avr8-gnu-toolchain-linux_x86/avr/include/util/delay_basic.h" 1
	1: dec r25
	brne 1b
 ;  0 "" 2
.LVL54:
/* #NOAPP */
.LBE25:
.LBE24:
	.loc 1 413 0
/* #APP */
 ;  413 "../ds18x20/ds18x20.c" 1
	cli
 ;  0 "" 2
	.loc 1 415 0
/* #NOAPP */
	call OWReset
.LVL55:
	.loc 1 420 0
/* #APP */
 ;  420 "../ds18x20/ds18x20.c" 1
	sei
 ;  0 "" 2
	.loc 1 421 0
/* #NOAPP */
	call ow_input_pin_state
.LVL56:
	tst r24
	breq .L26
	.loc 1 422 0
	cpi r17,lo8(1)
	breq .L25
	.loc 1 423 0
/* #APP */
 ;  423 "../ds18x20/ds18x20.c" 1
	cli
 ;  0 "" 2
	.loc 1 424 0
/* #NOAPP */
	movw r22,r28
	ldi r24,lo8(68)
	call ow_command_with_parasite_enable
.LVL57:
	.loc 1 425 0
/* #APP */
 ;  425 "../ds18x20/ds18x20.c" 1
	sei
 ;  0 "" 2
	.loc 1 433 0
/* #NOAPP */
	ldi r24,0
	rjmp .L24
.L25:
	.loc 1 428 0
/* #APP */
 ;  428 "../ds18x20/ds18x20.c" 1
	cli
 ;  0 "" 2
	.loc 1 429 0
/* #NOAPP */
	movw r22,r28
	ldi r24,lo8(68)
	call ow_command
.LVL58:
	.loc 1 430 0
/* #APP */
 ;  430 "../ds18x20/ds18x20.c" 1
	sei
 ;  0 "" 2
	.loc 1 433 0
/* #NOAPP */
	ldi r24,0
	rjmp .L24
.L26:
	.loc 1 439 0
	ldi r24,lo8(2)
.L24:
.LVL59:
	.loc 1 443 0
	sbi 0xb,5
/* epilogue start */
	.loc 1 447 0
	pop r29
	pop r28
.LVL60:
	pop r17
.LVL61:
	ret
	.cfi_endproc
.LFE13:
	.size	DS18X20_start_meas, .-DS18X20_start_meas
.global	DS18X20_conversion_in_progress
	.type	DS18X20_conversion_in_progress, @function
DS18X20_conversion_in_progress:
.LFB14:
	.loc 1 452 0
	.cfi_startproc
/* prologue: function */
/* frame size = 0 */
/* stack size = 0 */
.L__stack_usage = 0
	.loc 1 456 0
	cbi 0xb,5
.LVL62:
.LBB26:
.LBB27:
	.loc 2 83 0
	ldi r24,lo8(10)
/* #APP */
 ;  83 "/avr8-gnu-toolchain-linux_x86/avr/include/util/delay_basic.h" 1
	1: dec r24
	brne 1b
 ;  0 "" 2
.LVL63:
/* #NOAPP */
.LBE27:
.LBE26:
	.loc 1 458 0
	ldi r24,lo8(1)
	call ow_bit_io
.LVL64:
	.loc 1 461 0
	sbi 0xb,5
	.loc 1 458 0
	ldi r25,lo8(1)
	cpse r24,__zero_reg__
	ldi r25,0
.L28:
	.loc 1 464 0
	mov r24,r25
.LVL65:
	ret
	.cfi_endproc
.LFE14:
	.size	DS18X20_conversion_in_progress, .-DS18X20_conversion_in_progress
.global	DS18X20_format_from_decicelsius
	.type	DS18X20_format_from_decicelsius, @function
DS18X20_format_from_decicelsius:
.LFB17:
	.loc 1 570 0
	.cfi_startproc
.LVL66:
	push r14
.LCFI11:
	.cfi_def_cfa_offset 3
	.cfi_offset 14, -2
	push r15
.LCFI12:
	.cfi_def_cfa_offset 4
	.cfi_offset 15, -3
	push r16
.LCFI13:
	.cfi_def_cfa_offset 5
	.cfi_offset 16, -4
	push r17
.LCFI14:
	.cfi_def_cfa_offset 6
	.cfi_offset 17, -5
	push r28
.LCFI15:
	.cfi_def_cfa_offset 7
	.cfi_offset 28, -6
	push r29
.LCFI16:
	.cfi_def_cfa_offset 8
	.cfi_offset 29, -7
	in r28,__SP_L__
	in r29,__SP_H__
.LCFI17:
	.cfi_def_cfa_register 28
	sbiw r28,7
.LCFI18:
	.cfi_def_cfa_offset 15
	in __tmp_reg__,__SREG__
	cli
	out __SP_H__,r29
	out __SREG__,__tmp_reg__
	out __SP_L__,r28
/* prologue: function */
/* frame size = 7 */
/* stack size = 13 */
.L__stack_usage = 13
	movw r16,r22
.LVL67:
	.loc 1 579 0
	cpi r20,lo8(7)
	brsh .+2
	rjmp .L41
	.loc 1 579 0 is_stmt 0 discriminator 1
	movw r18,r24
	subi r18,25
	sbci r19,-4
	cpi r18,-9
	sbci r19,42
.LVL68:
	brlo .+2
	rjmp .L42
	.loc 1 581 0 is_stmt 1
	tst r25
	brge .L43
.LVL69:
	.loc 1 583 0
	neg r25
	neg r24
	sbc r25,__zero_reg__
.LVL70:
	.loc 1 582 0
	clr r14
	inc r14
	rjmp .L31
.LVL71:
.L43:
	.loc 1 571 0
	mov r14,__zero_reg__
.LVL72:
.L31:
	.loc 1 582 0 discriminator 1
	mov r15,__zero_reg__
.LVL73:
.L33:
	.loc 1 588 0 discriminator 1
	ldi r22,lo8(10)
	ldi r23,0
	call __divmodhi4
.LVL74:
	.loc 1 589 0 discriminator 1
	ldi r18,lo8(1)
	add r18,r15
.LVL75:
	ldi r30,lo8(1)
	ldi r31,0
	add r30,r28
	adc r31,r29
	add r30,r15
	adc r31,__zero_reg__
	sbrc r15,7
	dec r31
	subi r24,lo8(-(48))
	st Z,r24
	.loc 1 590 0 discriminator 1
	mov r24,r22
	mov r25,r23
.LVL76:
	.loc 1 591 0 discriminator 1
	cp __zero_reg__,r24
	cpc __zero_reg__,r25
	brge .L32
	.loc 1 589 0
	mov r15,r18
	rjmp .L33
.L32:
	mov r24,r18
	.loc 1 593 0
	tst r14
	breq .L34
	.loc 1 594 0
	ldi r25,lo8(45)
	movw r30,r28
	add r30,r18
	adc r31,__zero_reg__
	sbrc r18,7
	dec r31
	std Z+1,r25
.L37:
	.loc 1 601 0 discriminator 1
	tst r24
	brge .L35
	.loc 1 601 0 is_stmt 0
	ldi r19,0
	rjmp .L36
.L34:
	.loc 1 597 0 is_stmt 1
	ldi r25,lo8(43)
	movw r30,r28
	add r30,r18
	adc r31,__zero_reg__
	sbrc r18,7
	dec r31
	std Z+1,r25
	rjmp .L37
.L35:
	.loc 1 601 0
	ldi r25,0
	.loc 1 604 0
	ldi r20,lo8(46)
	rjmp .L38
.LVL77:
.L40:
	mov r25,r19
	mov r18,r24
.LVL78:
.L38:
	.loc 1 602 0
	ldi r19,lo8(1)
	add r19,r25
.LVL79:
	ldi r24,lo8(-1)
	add r24,r18
.LVL80:
	ldi r30,lo8(1)
	ldi r31,0
	add r30,r28
	adc r31,r29
	add r30,r18
	adc r31,__zero_reg__
	ld r18,Z
	movw r30,r16
	add r30,r25
	adc r31,__zero_reg__
	st Z,r18
	.loc 1 603 0
	cpse r24,__zero_reg__
	rjmp .L39
.LVL81:
	.loc 1 604 0
	movw r30,r16
	add r30,r19
	adc r31,__zero_reg__
	st Z,r20
.LVL82:
	ldi r19,lo8(2)
	add r19,r25
.LVL83:
	rjmp .L40
.LVL84:
.L39:
	.loc 1 601 0 discriminator 1
	tst r24
	brge .L40
.LVL85:
.L36:
	.loc 1 607 0
	movw r30,r16
	add r30,r19
	adc r31,__zero_reg__
	st Z,__zero_reg__
.LVL86:
	.loc 1 609 0
	ldi r24,0
.LVL87:
	rjmp .L30
.LVL88:
.L41:
	.loc 1 611 0
	ldi r24,lo8(1)
.LVL89:
	rjmp .L30
.LVL90:
.L42:
	ldi r24,lo8(1)
.LVL91:
.L30:
/* epilogue start */
	.loc 1 615 0
	adiw r28,7
	in __tmp_reg__,__SREG__
	cli
	out __SP_H__,r29
	out __SREG__,__tmp_reg__
	out __SP_L__,r28
	pop r29
	pop r28
	pop r17
	pop r16
.LVL92:
	pop r15
	pop r14
	ret
	.cfi_endproc
.LFE17:
	.size	DS18X20_format_from_decicelsius, .-DS18X20_format_from_decicelsius
.global	DS18X20_read_decicelsius
	.type	DS18X20_read_decicelsius, @function
DS18X20_read_decicelsius:
.LFB18:
	.loc 1 621 0
	.cfi_startproc
.LVL93:
	push r13
.LCFI19:
	.cfi_def_cfa_offset 3
	.cfi_offset 13, -2
	push r14
.LCFI20:
	.cfi_def_cfa_offset 4
	.cfi_offset 14, -3
	push r15
.LCFI21:
	.cfi_def_cfa_offset 5
	.cfi_offset 15, -4
	push r16
.LCFI22:
	.cfi_def_cfa_offset 6
	.cfi_offset 16, -5
	push r17
.LCFI23:
	.cfi_def_cfa_offset 7
	.cfi_offset 17, -6
	push r28
.LCFI24:
	.cfi_def_cfa_offset 8
	.cfi_offset 28, -7
	push r29
.LCFI25:
	.cfi_def_cfa_offset 9
	.cfi_offset 29, -8
	in r28,__SP_L__
	in r29,__SP_H__
.LCFI26:
	.cfi_def_cfa_register 28
	sbiw r28,9
.LCFI27:
	.cfi_def_cfa_offset 18
	in __tmp_reg__,__SREG__
	cli
	out __SP_H__,r29
	out __SREG__,__tmp_reg__
	out __SP_L__,r28
/* prologue: function */
/* frame size = 9 */
/* stack size = 16 */
.L__stack_usage = 16
	movw r16,r24
	movw r14,r22
	.loc 1 626 0
	cbi 0xb,5
.LVL94:
.LBB28:
.LBB29:
	.loc 2 83 0
	ldi r24,lo8(10)
.LVL95:
/* #APP */
 ;  83 "/avr8-gnu-toolchain-linux_x86/avr/include/util/delay_basic.h" 1
	1: dec r24
	brne 1b
 ;  0 "" 2
.LVL96:
/* #NOAPP */
.LBE29:
.LBE28:
	.loc 1 629 0
	call OWReset
.LVL97:
	.loc 1 635 0
	ldi r20,lo8(9)
	movw r22,r28
	subi r22,-1
	sbci r23,-1
	movw r24,r16
	call read_scratchpad
.LVL98:
	mov r13,r24
.LVL99:
	.loc 1 636 0
	cpse r24,__zero_reg__
	rjmp .L45
	.loc 1 637 0
	movw r22,r28
	subi r22,-1
	sbci r23,-1
	movw r30,r16
	ld r24,Z
	call DS18X20_raw_to_decicelsius
.LVL100:
	movw r30,r14
	std Z+1,r25
	st Z,r24
.L45:
	.loc 1 641 0
	sbi 0xb,5
	.loc 1 644 0
	mov r24,r13
/* epilogue start */
	adiw r28,9
	in __tmp_reg__,__SREG__
	cli
	out __SP_H__,r29
	out __SREG__,__tmp_reg__
	out __SP_L__,r28
	pop r29
	pop r28
	pop r17
	pop r16
.LVL101:
	pop r15
	pop r14
.LVL102:
	pop r13
.LVL103:
	ret
	.cfi_endproc
.LFE18:
	.size	DS18X20_read_decicelsius, .-DS18X20_read_decicelsius
.global	DS18X20_read_decicelsius_single
	.type	DS18X20_read_decicelsius_single, @function
DS18X20_read_decicelsius_single:
.LFB19:
	.loc 1 650 0
	.cfi_startproc
.LVL104:
	push r14
.LCFI28:
	.cfi_def_cfa_offset 3
	.cfi_offset 14, -2
	push r15
.LCFI29:
	.cfi_def_cfa_offset 4
	.cfi_offset 15, -3
	push r16
.LCFI30:
	.cfi_def_cfa_offset 5
	.cfi_offset 16, -4
	push r17
.LCFI31:
	.cfi_def_cfa_offset 6
	.cfi_offset 17, -5
	push r28
.LCFI32:
	.cfi_def_cfa_offset 7
	.cfi_offset 28, -6
	push r29
.LCFI33:
	.cfi_def_cfa_offset 8
	.cfi_offset 29, -7
	in r28,__SP_L__
	in r29,__SP_H__
.LCFI34:
	.cfi_def_cfa_register 28
	sbiw r28,9
.LCFI35:
	.cfi_def_cfa_offset 17
	in __tmp_reg__,__SREG__
	cli
	out __SP_H__,r29
	out __SREG__,__tmp_reg__
	out __SP_L__,r28
/* prologue: function */
/* frame size = 9 */
/* stack size = 15 */
.L__stack_usage = 15
	mov r14,r24
	movw r16,r22
	.loc 1 654 0
	ldi r20,lo8(9)
	movw r22,r28
.LVL105:
	subi r22,-1
	sbci r23,-1
	ldi r24,0
	ldi r25,0
.LVL106:
	call read_scratchpad
.LVL107:
	mov r15,r24
.LVL108:
	.loc 1 655 0
	cpse r24,__zero_reg__
	rjmp .L47
	.loc 1 656 0
	movw r22,r28
	subi r22,-1
	sbci r23,-1
	mov r24,r14
	call DS18X20_raw_to_decicelsius
.LVL109:
	movw r30,r16
	std Z+1,r25
	st Z,r24
.L47:
	.loc 1 659 0
	mov r24,r15
/* epilogue start */
	adiw r28,9
	in __tmp_reg__,__SREG__
	cli
	out __SP_H__,r29
	out __SREG__,__tmp_reg__
	out __SP_L__,r28
	pop r29
	pop r28
	pop r17
	pop r16
.LVL110:
	pop r15
.LVL111:
	pop r14
.LVL112:
	ret
	.cfi_endproc
.LFE19:
	.size	DS18X20_read_decicelsius_single, .-DS18X20_read_decicelsius_single
.Letext0:
	.file 4 "/avr8-gnu-toolchain-linux_x86/avr/include/stdlib.h"
	.file 5 "/avr8-gnu-toolchain-linux_x86/avr/include/stdint.h"
	.file 6 "/home/izhuk/git/PumpRegulator/A328Pn3310DS18x20_n/onewire/onewire.h"
	.file 7 "../ds18x20/crc8.h"