	.file	"extint.c"
__SP_H__ = 0x3e
__SP_L__ = 0x3d
__SREG__ = 0x3f
__tmp_reg__ = 0
__zero_reg__ = 1
	.text
.Ltext0:
	.cfi_sections	.debug_frame
.global	ExtInt0Enable
	.type	ExtInt0Enable, @function
ExtInt0Enable:
.LFB0:
	.file 1 "../extint/extint.c"
	.loc 1 15 0
	.cfi_startproc
/* prologue: function */
/* frame size = 0 */
/* stack size = 0 */
.L__stack_usage = 0
	.loc 1 16 0
	cbi 0x1d,0
	.loc 1 19 0
	ldi r30,lo8(105)
	ldi r31,0
	ld r24,Z
	andi r24,lo8(-4)
	st Z,r24
	.loc 1 22 0
	cbi 0xa,2
	.loc 1 23 0
	sbi 0x1c,0
	.loc 1 24 0
	sbi 0x1d,0
	.loc 1 25 0
/* #APP */
 ;  25 "../extint/extint.c" 1
	sei
 ;  0 "" 2
/* #NOAPP */
	ret
	.cfi_endproc
.LFE0:
	.size	ExtInt0Enable, .-ExtInt0Enable
.global	ExtInt0Disable
	.type	ExtInt0Disable, @function
ExtInt0Disable:
.LFB1:
	.loc 1 28 0
	.cfi_startproc
/* prologue: function */
/* frame size = 0 */
/* stack size = 0 */
.L__stack_usage = 0
	.loc 1 30 0
	cbi 0x1d,0
	.loc 1 31 0
	sbi 0x1c,0
	ret
	.cfi_endproc
.LFE1:
	.size	ExtInt0Disable, .-ExtInt0Disable
.global	__vector_1
	.type	__vector_1, @function
__vector_1:
.LFB2:
	.loc 1 35 0
	.cfi_startproc
	push r1
.LCFI0:
	.cfi_def_cfa_offset 3
	.cfi_offset 1, -2
	push r0
.LCFI1:
	.cfi_def_cfa_offset 4
	.cfi_offset 0, -3
	in r0,__SREG__
	push r0
	clr __zero_reg__
	push r24
.LCFI2:
	.cfi_def_cfa_offset 5
	.cfi_offset 24, -4
/* prologue: Signal */
/* frame size = 0 */
/* stack size = 4 */
.L__stack_usage = 4
	.loc 1 36 0
	lds r24,extstate
	cpi r24,lo8(3)
	brlo .L4
	.loc 1 37 0
	sts extstate,__zero_reg__
	rjmp .L3
.L4:
	.loc 1 39 0
	subi r24,lo8(-(1))
	sts extstate,r24
.L3:
/* epilogue start */
	.loc 1 41 0
	pop r24
	pop r0
	out __SREG__,r0
	pop r0
	pop r1
	reti
	.cfi_endproc
.LFE2:
	.size	__vector_1, .-__vector_1
.global	ExtInt1Enable
	.type	ExtInt1Enable, @function
ExtInt1Enable:
.LFB3:
	.loc 1 43 0
	.cfi_startproc
/* prologue: function */
/* frame size = 0 */
/* stack size = 0 */
.L__stack_usage = 0
	.loc 1 44 0
	cbi 0x1d,1
	.loc 1 48 0
	ldi r30,lo8(105)
	ldi r31,0
	ld r24,Z
	andi r24,lo8(-9)
	st Z,r24
	ld r24,Z
	ori r24,lo8(4)
	st Z,r24
	.loc 1 50 0
	cbi 0xa,3
	.loc 1 54 0
	sbi 0xb,3
	.loc 1 56 0
	sbi 0x1c,1
	.loc 1 57 0
	sbi 0x1d,1
	.loc 1 58 0
/* #APP */
 ;  58 "../extint/extint.c" 1
	sei
 ;  0 "" 2
/* #NOAPP */
	ret
	.cfi_endproc
.LFE3:
	.size	ExtInt1Enable, .-ExtInt1Enable
.global	ExtInt1Disable
	.type	ExtInt1Disable, @function
ExtInt1Disable:
.LFB4:
	.loc 1 61 0
	.cfi_startproc
/* prologue: function */
/* frame size = 0 */
/* stack size = 0 */
.L__stack_usage = 0
	.loc 1 62 0
	cbi 0x1d,1
	.loc 1 63 0
	sbi 0x1c,1
	ret
	.cfi_endproc
.LFE4:
	.size	ExtInt1Disable, .-ExtInt1Disable
.global	__vector_2
	.type	__vector_2, @function
__vector_2:
.LFB5:
	.loc 1 66 0
	.cfi_startproc
	push r1
.LCFI3:
	.cfi_def_cfa_offset 3
	.cfi_offset 1, -2
	push r0
.LCFI4:
	.cfi_def_cfa_offset 4
	.cfi_offset 0, -3
	in r0,__SREG__
	push r0
	clr __zero_reg__
	push r24
.LCFI5:
	.cfi_def_cfa_offset 5
	.cfi_offset 24, -4
/* prologue: Signal */
/* frame size = 0 */
/* stack size = 4 */
.L__stack_usage = 4
	.loc 1 68 0
	sbis 0x9,3
	rjmp .L9
	.loc 1 69 0
	lds r24,powergone
	cpi r24,lo8(100)
	brlo .L10
	.loc 1 70 0
	ldi r24,lo8(1)
	sts powergone,r24
	rjmp .L8
.L10:
	.loc 1 72 0
	subi r24,lo8(-(1))
	sts powergone,r24
	rjmp .L8
.L9:
	.loc 1 73 0
	sts wait_powergone,__zero_reg__
	sts powergone,__zero_reg__
.L8:
/* epilogue start */
	.loc 1 75 0
	pop r24
	pop r0
	out __SREG__,r0
	pop r0
	pop r1
	reti
	.cfi_endproc
.LFE5:
	.size	__vector_2, .-__vector_2
.global	powergone
	.section .bss
	.type	powergone, @object
	.size	powergone, 1
powergone:
	.zero	1
.global	extstate
	.type	extstate, @object
	.size	extstate, 1
extstate:
	.zero	1
	.text
.Letext0:
	.file 2 "/avr8-gnu-toolchain-linux_x86/avr/include/stdint.h"