	.file	"onewire.c"
__SP_H__ = 0x3e
__SP_L__ = 0x3d
__SREG__ = 0x3f
__tmp_reg__ = 0
__zero_reg__ = 1
	.text
.Ltext0:
	.cfi_sections	.debug_frame
.global	ow_set_bus
	.type	ow_set_bus, @function
ow_set_bus:
.LFB11:
	.file 1 "../onewire/onewire.c"
	.loc 1 38 0
	.cfi_startproc
.LVL0:
/* prologue: function */
/* frame size = 0 */
/* stack size = 0 */
.L__stack_usage = 0
	.loc 1 39 0
	sts OW_DDR+1,r21
	sts OW_DDR,r20
	.loc 1 40 0
	sts OW_OUT+1,r23
	sts OW_OUT,r22
	.loc 1 41 0
	sts OW_IN+1,r25
	sts OW_IN,r24
	.loc 1 42 0
	ldi r24,lo8(1)
.LVL1:
	mov r0,r18
	rjmp 2f
	1:
	lsl r24
	2:
	dec r0
	brpl 1b
	sts OW_PIN_MASK,r24
	.loc 1 43 0
	sts OW_PIN,r18
	ret
	.cfi_endproc
.LFE11:
	.size	ow_set_bus, .-ow_set_bus
.global	ow_input_pin_state
	.type	ow_input_pin_state, @function
ow_input_pin_state:
.LFB12:
	.loc 1 50 0
	.cfi_startproc
/* prologue: function */
/* frame size = 0 */
/* stack size = 0 */
.L__stack_usage = 0
	.loc 1 51 0
	lds r30,OW_IN
	lds r31,OW_IN+1
	ld r25,Z
	lds r24,OW_PIN_MASK
	.loc 1 52 0
	and r24,r25
	ret
	.cfi_endproc
.LFE12:
	.size	ow_input_pin_state, .-ow_input_pin_state
.global	ow_parasite_enable
	.type	ow_parasite_enable, @function
ow_parasite_enable:
.LFB13:
	.loc 1 55 0
	.cfi_startproc
/* prologue: function */
/* frame size = 0 */
/* stack size = 0 */
.L__stack_usage = 0
	.loc 1 56 0
	lds r30,OW_OUT
	lds r31,OW_OUT+1
	ld r25,Z
	lds r24,OW_PIN_MASK
	or r24,r25
	st Z,r24
	.loc 1 57 0
	lds r30,OW_DDR
	lds r31,OW_DDR+1
	ld r25,Z
	lds r24,OW_PIN_MASK
	or r24,r25
	st Z,r24
	ret
	.cfi_endproc
.LFE13:
	.size	ow_parasite_enable, .-ow_parasite_enable
	.type	ow_bit_io_intern, @function
ow_bit_io_intern:
.LFB15:
	.loc 1 110 0
	.cfi_startproc
.LVL2:
	push r28
.LCFI0:
	.cfi_def_cfa_offset 3
	.cfi_offset 28, -2
	push r29
.LCFI1:
	.cfi_def_cfa_offset 4
	.cfi_offset 29, -3
/* prologue: function */
/* frame size = 0 */
/* stack size = 2 */
.L__stack_usage = 2
	mov r28,r24
.LBB15:
	.loc 1 111 0
	in r29,__SREG__
.LVL3:
.LBB16:
.LBB17:
	.file 2 "/avr8-gnu-toolchain-linux_x86/avr/include/util/atomic.h"
	.loc 2 50 0
/* #APP */
 ;  50 "/avr8-gnu-toolchain-linux_x86/avr/include/util/atomic.h" 1
	cli
 ;  0 "" 2
.LVL4:
/* #NOAPP */
.LBE17:
.LBE16:
	.loc 1 113 0
	lds r30,OW_OUT
	lds r31,OW_OUT+1
	ld r25,Z
	lds r24,OW_PIN_MASK
.LVL5:
	com r24
	and r24,r25
	st Z,r24
	.loc 1 115 0
	lds r30,OW_DDR
	lds r31,OW_DDR+1
	ld r25,Z
	lds r24,OW_PIN_MASK
	or r24,r25
	st Z,r24
.LVL6:
.LBB18:
.LBB19:
	.file 3 "/avr8-gnu-toolchain-linux_x86/avr/include/util/delay.h"
	.loc 3 245 0
	ldi r24,lo8(5)
	1: dec r24
	brne 1b
	nop
.LBE19:
.LBE18:
	.loc 1 117 0
	tst r28
	breq .L5
	.loc 1 118 0
	lds r30,OW_DDR
	lds r31,OW_DDR+1
	ld r25,Z
	lds r24,OW_PIN_MASK
	com r24
	and r24,r25
	st Z,r24
	.loc 1 120 0
	lds r30,OW_OUT
	lds r31,OW_OUT+1
	ld r25,Z
	lds r24,OW_PIN_MASK
	or r24,r25
	st Z,r24
.L5:
.LVL7:
.LBB20:
.LBB21:
	.loc 3 245 0
	ldi r24,lo8(32)
	1: dec r24
	brne 1b
.LBE21:
.LBE20:
	.loc 1 130 0
	lds r30,OW_IN
	lds r31,OW_IN+1
	ld r25,Z
	lds r24,OW_PIN_MASK
	and r24,r25
	brne .L6
	.loc 1 131 0
	ldi r28,0
.LVL8:
.L6:
.LBB22:
.LBB23:
	.loc 3 245 0
	ldi r24,lo8(117)
	1: dec r24
	brne 1b
	nop
.LBE23:
.LBE22:
	.loc 1 136 0
	lds r30,OW_OUT
	lds r31,OW_OUT+1
	ld r25,Z
	lds r24,OW_PIN_MASK
	or r24,r25
	st Z,r24
	.loc 1 138 0
	lds r30,OW_DDR
	lds r31,OW_DDR+1
	ld r18,Z
	lds r25,OW_PIN_MASK
	com r25
	and r25,r18
	st Z,r25
	.loc 1 140 0
	cpse r22,__zero_reg__
	.loc 1 141 0
	call ow_parasite_enable
.LVL9:
.L7:
.LBB24:
.LBB25:
	.loc 2 70 0
	out __SREG__,r29
	.loc 2 71 0
.LVL10:
.LBE25:
.LBE24:
.LBE15:
.LBB26:
.LBB27:
	.loc 3 245 0
	ldi r24,lo8(26)
	1: dec r24
	brne 1b
	rjmp .
.LBE27:
.LBE26:
	.loc 1 149 0
	mov r24,r28
/* epilogue start */
	pop r29
.LVL11:
	pop r28
.LVL12:
	ret
	.cfi_endproc
.LFE15:
	.size	ow_bit_io_intern, .-ow_bit_io_intern
.global	ow_parasite_disable
	.type	ow_parasite_disable, @function
ow_parasite_disable:
.LFB14:
	.loc 1 61 0
	.cfi_startproc
/* prologue: function */
/* frame size = 0 */
/* stack size = 0 */
.L__stack_usage = 0
	.loc 1 62 0
	lds r30,OW_DDR
	lds r31,OW_DDR+1
	ld r25,Z
	lds r24,OW_PIN_MASK
	com r24
	and r24,r25
	st Z,r24
	ret
	.cfi_endproc
.LFE14:
	.size	ow_parasite_disable, .-ow_parasite_disable
.global	ow_bit_io
	.type	ow_bit_io, @function
ow_bit_io:
.LFB16:
	.loc 1 152 0
	.cfi_startproc
.LVL13:
/* prologue: function */
/* frame size = 0 */
/* stack size = 0 */
.L__stack_usage = 0
	.loc 1 153 0
	ldi r22,0
	andi r24,lo8(1)
.LVL14:
	call ow_bit_io_intern
.LVL15:
	.loc 1 154 0
	ret
	.cfi_endproc
.LFE16:
	.size	ow_bit_io, .-ow_bit_io
.global	ow_byte_wr
	.type	ow_byte_wr, @function
ow_byte_wr:
.LFB17:
	.loc 1 157 0
	.cfi_startproc
.LVL16:
	push r28
.LCFI2:
	.cfi_def_cfa_offset 3
	.cfi_offset 28, -2
	push r29
.LCFI3:
	.cfi_def_cfa_offset 4
	.cfi_offset 29, -3
/* prologue: function */
/* frame size = 0 */
/* stack size = 2 */
.L__stack_usage = 2
	mov r28,r24
.LVL17:
	.loc 1 157 0
	ldi r29,lo8(8)
.LVL18:
.L14:
	.loc 1 161 0
	mov r24,r28
	andi r24,lo8(1)
	call ow_bit_io
.LVL19:
	.loc 1 162 0
	lsr r28
.LVL20:
	.loc 1 163 0
	cpse r24,__zero_reg__
	.loc 1 164 0
	ori r28,lo8(-128)
.LVL21:
.L12:
	subi r29,lo8(-(-1))
.LVL22:
	.loc 1 166 0
	brne .L14
	.loc 1 169 0
	mov r24,r28
.LVL23:
/* epilogue start */
	pop r29
.LVL24:
	pop r28
.LVL25:
	ret
	.cfi_endproc
.LFE17:
	.size	ow_byte_wr, .-ow_byte_wr
.global	ow_byte_wr_with_parasite_enable
	.type	ow_byte_wr_with_parasite_enable, @function
ow_byte_wr_with_parasite_enable:
.LFB18:
	.loc 1 172 0
	.cfi_startproc
.LVL26:
	push r28
.LCFI4:
	.cfi_def_cfa_offset 3
	.cfi_offset 28, -2
	push r29
.LCFI5:
	.cfi_def_cfa_offset 4
	.cfi_offset 29, -3
/* prologue: function */
/* frame size = 0 */
/* stack size = 2 */
.L__stack_usage = 2
	mov r28,r24
.LVL27:
	.loc 1 173 0
	ldi r29,lo8(8)
.LVL28:
.L20:
	.loc 1 176 0
	cpi r29,lo8(1)
	breq .L16
	.loc 1 177 0
	ldi r22,0
	mov r24,r28
	andi r24,lo8(1)
	call ow_bit_io_intern
.LVL29:
	rjmp .L17
.LVL30:
.L16:
	.loc 1 179 0
	ldi r22,lo8(1)
	mov r24,r28
	andi r24,lo8(1)
	call ow_bit_io_intern
.LVL31:
.L17:
	.loc 1 181 0
	lsr r28
.LVL32:
	.loc 1 182 0
	cpse r24,__zero_reg__
	.loc 1 183 0
	ori r28,lo8(-128)
.LVL33:
.L18:
	.loc 1 185 0
	subi r29,lo8(-(-1))
.LVL34:
	brne .L20
	.loc 1 188 0
	mov r24,r28
.LVL35:
/* epilogue start */
	pop r29
.LVL36:
	pop r28
.LVL37:
	ret
	.cfi_endproc
.LFE18:
	.size	ow_byte_wr_with_parasite_enable, .-ow_byte_wr_with_parasite_enable
	.type	ow_command_intern, @function
ow_command_intern:
.LFB20:
	.loc 1 253 0
	.cfi_startproc
.LVL38:
	push r14
.LCFI6:
	.cfi_def_cfa_offset 3
	.cfi_offset 14, -2
	push r15
.LCFI7:
	.cfi_def_cfa_offset 4
	.cfi_offset 15, -3
	push r16
.LCFI8:
	.cfi_def_cfa_offset 5
	.cfi_offset 16, -4
	push r17
.LCFI9:
	.cfi_def_cfa_offset 6
	.cfi_offset 17, -5
	push r28
.LCFI10:
	.cfi_def_cfa_offset 7
	.cfi_offset 28, -6
	push r29
.LCFI11:
	.cfi_def_cfa_offset 8
	.cfi_offset 29, -7
/* prologue: function */
/* frame size = 0 */
/* stack size = 6 */
.L__stack_usage = 6
	mov r14,r24
	movw r28,r22
	mov r15,r20
	.loc 1 257 0
	call OWReset
.LVL39:
	.loc 1 263 0
	sbiw r28,0
	breq .L22
	.loc 1 264 0
	ldi r24,lo8(85)
	call ow_byte_wr
.LVL40:
	movw r16,r28
	subi r16,-8
	sbci r17,-1
.L24:
	.loc 1 267 0 discriminator 1
	ld r24,Y+
.LVL41:
	call ow_byte_wr
.LVL42:
	.loc 1 269 0 discriminator 1
	cp r28,r16
	cpc r29,r17
	brne .L24
	rjmp .L23
.LVL43:
.L22:
	.loc 1 272 0
	ldi r24,lo8(-52)
	call ow_byte_wr
.LVL44:
.L23:
	.loc 1 275 0
	tst r15
	breq .L25
	.loc 1 276 0
	mov r24,r14
	call ow_byte_wr_with_parasite_enable
.LVL45:
	rjmp .L21
.L25:
	.loc 1 278 0
	mov r24,r14
	call ow_byte_wr
.LVL46:
.L21:
/* epilogue start */
	.loc 1 280 0
	pop r29
	pop r28
.LVL47:
	pop r17
	pop r16
	pop r15
.LVL48:
	pop r14
.LVL49:
	ret
	.cfi_endproc
.LFE20:
	.size	ow_command_intern, .-ow_command_intern
.global	ow_byte_rd
	.type	ow_byte_rd, @function
ow_byte_rd:
.LFB19:
	.loc 1 192 0
	.cfi_startproc
/* prologue: function */
/* frame size = 0 */
/* stack size = 0 */
.L__stack_usage = 0
	.loc 1 195 0
	ldi r24,lo8(-1)
	call ow_byte_wr
.LVL50:
	.loc 1 196 0
	ret
	.cfi_endproc
.LFE19:
	.size	ow_byte_rd, .-ow_byte_rd
.global	ow_command
	.type	ow_command, @function
ow_command:
.LFB21:
	.loc 1 283 0
	.cfi_startproc
.LVL51:
/* prologue: function */
/* frame size = 0 */
/* stack size = 0 */
.L__stack_usage = 0
	.loc 1 284 0
	ldi r20,0
	call ow_command_intern
.LVL52:
	ret
	.cfi_endproc
.LFE21:
	.size	ow_command, .-ow_command
.global	ow_command_with_parasite_enable
	.type	ow_command_with_parasite_enable, @function
ow_command_with_parasite_enable:
.LFB22:
	.loc 1 288 0
	.cfi_startproc
.LVL53:
/* prologue: function */
/* frame size = 0 */
/* stack size = 0 */
.L__stack_usage = 0
	.loc 1 289 0
	ldi r20,lo8(1)
	call ow_command_intern
.LVL54:
	ret
	.cfi_endproc
.LFE22:
	.size	ow_command_with_parasite_enable, .-ow_command_with_parasite_enable
	.comm	OW_DDR,2,1
	.comm	OW_OUT,2,1
	.comm	OW_IN,2,1
	.comm	OW_PIN_MASK,1,1
	.comm	OW_PIN,1,1
.Letext0:
	.file 4 "/avr8-gnu-toolchain-linux_x86/avr/include/stdint.h"