	.file	"sms.c"
__SP_H__ = 0x3e
__SP_L__ = 0x3d
__SREG__ = 0x3f
__tmp_reg__ = 0
__zero_reg__ = 1
	.text
.Ltext0:
	.cfi_sections	.debug_frame
.global	gsm_init
	.type	gsm_init, @function
gsm_init:
.LFB12:
	.file 1 "../gsm-sms/sms.c"
	.loc 1 25 0
	.cfi_startproc
.LVL0:
/* prologue: function */
/* frame size = 0 */
/* stack size = 0 */
.L__stack_usage = 0
	.loc 1 26 0
	sts gsm_send_byte+1,r25
	sts gsm_send_byte,r24
	.loc 1 27 0
	sts gsm_get_byte+1,r23
	sts gsm_get_byte,r22
	ret
	.cfi_endproc
.LFE12:
	.size	gsm_init, .-gsm_init
	.section	.rodata.str1.1,"aMS",@progbits,1
.LC0:
	.string	"\n"
	.text
.global	gsm_del_sms
	.type	gsm_del_sms, @function
gsm_del_sms:
.LFB18:
	.loc 1 291 0
	.cfi_startproc
.LVL1:
	push r28
.LCFI0:
	.cfi_def_cfa_offset 3
	.cfi_offset 28, -2
	push r29
.LCFI1:
	.cfi_def_cfa_offset 4
	.cfi_offset 29, -3
/* prologue: function */
/* frame size = 0 */
/* stack size = 2 */
.L__stack_usage = 2
	movw r28,r24
	.loc 1 297 0
	ldi r24,lo8(__c.2382)
	ldi r25,hi8(__c.2382)
.LVL2:
	call uart_puts_p
.LVL3:
	.loc 1 298 0
	movw r24,r28
	call uart_put_int
.LVL4:
	.loc 1 299 0
	ldi r24,lo8(.LC0)
	ldi r25,hi8(.LC0)
	call uart_puts_p
.LVL5:
	.loc 1 302 0
	call DoWatchDog
.LVL6:
.LBB25:
.LBB26:
	.file 2 "/avr8-gnu-toolchain-linux_x86/avr/include/util/delay.h"
	.loc 2 163 0
	ldi r18,lo8(799999)
	ldi r24,hi8(799999)
	ldi r25,hlo8(799999)
	1: subi r18,1
	sbci r24,0
	sbci r25,0
	brne 1b
	rjmp .
	nop
.LBE26:
.LBE25:
	.loc 1 306 0
	ldi r24,lo8(1)
	ldi r25,0
/* epilogue start */
	pop r29
	pop r28
.LVL7:
	ret
	.cfi_endproc
.LFE18:
	.size	gsm_del_sms, .-gsm_del_sms
.global	gsm_read_token
	.type	gsm_read_token, @function
gsm_read_token:
.LFB19:
	.loc 1 447 0
	.cfi_startproc
.LVL8:
	push r9
.LCFI2:
	.cfi_def_cfa_offset 3
	.cfi_offset 9, -2
	push r10
.LCFI3:
	.cfi_def_cfa_offset 4
	.cfi_offset 10, -3
	push r11
.LCFI4:
	.cfi_def_cfa_offset 5
	.cfi_offset 11, -4
	push r12
.LCFI5:
	.cfi_def_cfa_offset 6
	.cfi_offset 12, -5
	push r13
.LCFI6:
	.cfi_def_cfa_offset 7
	.cfi_offset 13, -6
	push r14
.LCFI7:
	.cfi_def_cfa_offset 8
	.cfi_offset 14, -7
	push r15
.LCFI8:
	.cfi_def_cfa_offset 9
	.cfi_offset 15, -8
	push r16
.LCFI9:
	.cfi_def_cfa_offset 10
	.cfi_offset 16, -9
	push r17
.LCFI10:
	.cfi_def_cfa_offset 11
	.cfi_offset 17, -10
	push r28
.LCFI11:
	.cfi_def_cfa_offset 12
	.cfi_offset 28, -11
	push r29
.LCFI12:
	.cfi_def_cfa_offset 13
	.cfi_offset 29, -12
/* prologue: function */
/* frame size = 0 */
/* stack size = 11 */
.L__stack_usage = 11
	movw r28,r24
	movw r10,r22
	mov r9,r20
	mov r14,r18
	.loc 1 449 0
	movw r30,r24
	0:
	ld __tmp_reg__,Z+
	tst __tmp_reg__
	brne 0b
	movw r24,r30
.LVL9:
	sbiw r24,1
	sub r24,r28
	sbc r25,r29
	call malloc
.LVL10:
	movw r12,r24
.LVL11:
	.loc 1 453 0
	movw r22,r28
	call strcpy
.LVL12:
	.loc 1 454 0
	movw r22,r16
	movw r24,r12
	call strtok
.LVL13:
	.loc 1 457 0
	mov r15,__zero_reg__
	cp __zero_reg__,r14
	cpc __zero_reg__,r15
	brge .L4
	ldi r28,lo8(1)
	ldi r29,0
.LVL14:
.L5:
	.loc 1 458 0 discriminator 2
	movw r22,r16
	ldi r24,0
	ldi r25,0
.LVL15:
	call strtok
.LVL16:
	.loc 1 457 0 discriminator 2
	adiw r28,1
.LVL17:
	cp r14,r28
	cpc r15,r29
	brge .L5
.LVL18:
.L4:
	.loc 1 462 0
	sbiw r24,0
	breq .L6
	.loc 1 462 0 is_stmt 0 discriminator 1
	movw r30,r24
	0:
	ld __tmp_reg__,Z+
	tst __tmp_reg__
	brne 0b
	sbiw r30,1
	sub r30,r24
	sbc r31,r25
	mov r18,r9
	ldi r19,0
	cp r30,r18
	cpc r31,r19
	brsh .L6
	.loc 1 463 0 is_stmt 1
	movw r22,r24
	movw r24,r10
.LVL19:
	call strcpy
.LVL20:
	.loc 1 464 0
	movw r24,r12
	call free
.LVL21:
	.loc 1 465 0
	ldi r24,0
	ldi r25,0
	rjmp .L7
.LVL22:
.L6:
	.loc 1 469 0
	movw r30,r10
	st Z,__zero_reg__
	.loc 1 470 0
	movw r24,r12
.LVL23:
	call free
.LVL24:
	.loc 1 471 0
	ldi r24,lo8(1)
	ldi r25,0
.L7:
/* epilogue start */
	.loc 1 472 0
	pop r29
	pop r28
	pop r17
	pop r16
.LVL25:
	pop r15
	pop r14
.LVL26:
	pop r13
	pop r12
.LVL27:
	pop r11
	pop r10
.LVL28:
	pop r9
.LVL29:
	ret
	.cfi_endproc
.LFE19:
	.size	gsm_read_token, .-gsm_read_token
.global	gsm_remove_char
	.type	gsm_remove_char, @function
gsm_remove_char:
.LFB20:
	.loc 1 475 0
	.cfi_startproc
.LVL30:
	push r13
.LCFI13:
	.cfi_def_cfa_offset 3
	.cfi_offset 13, -2
	push r14
.LCFI14:
	.cfi_def_cfa_offset 4
	.cfi_offset 14, -3
	push r15
.LCFI15:
	.cfi_def_cfa_offset 5
	.cfi_offset 15, -4
	push r16
.LCFI16:
	.cfi_def_cfa_offset 6
	.cfi_offset 16, -5
	push r17
.LCFI17:
	.cfi_def_cfa_offset 7
	.cfi_offset 17, -6
	push r28
.LCFI18:
	.cfi_def_cfa_offset 8
	.cfi_offset 28, -7
	push r29
.LCFI19:
	.cfi_def_cfa_offset 9
	.cfi_offset 29, -8
/* prologue: function */
/* frame size = 0 */
/* stack size = 7 */
.L__stack_usage = 7
	movw r16,r24
	movw r28,r22
	mov r15,r20
	.loc 1 476 0
	movw r30,r22
	0:
	ld __tmp_reg__,Z+
	tst __tmp_reg__
	brne 0b
	sbiw r30,1
	movw r24,r30
.LVL31:
	sub r24,r22
	sbc r25,r23
	call malloc
.LVL32:
	mov r13,r24
	mov r14,r25
.LVL33:
	.loc 1 479 0
	movw r24,r28
	call puts
.LVL34:
	.loc 1 481 0
	ld r18,Y
	tst r18
	breq .L12
	movw r30,r28
	adiw r30,1
	.loc 1 477 0
	mov r26,r13
	mov r27,r14
.LVL35:
.L11:
	.loc 1 482 0
	cpse r18,r15
	.loc 1 483 0
	st X+,r18
.LVL36:
.L10:
	.loc 1 481 0
	ld r18,Z+
.LVL37:
	cpse r18,__zero_reg__
	rjmp .L11
	rjmp .L9
.LVL38:
.L12:
	.loc 1 477 0
	mov r26,r13
	mov r27,r14
.LVL39:
.L9:
	.loc 1 488 0
	st X,__zero_reg__
	.loc 1 489 0
	mov r22,r13
	mov r23,r14
	movw r24,r16
	call strcpy
.LVL40:
	.loc 1 490 0
	mov r24,r13
	mov r25,r14
	call free
.LVL41:
/* epilogue start */
	.loc 1 491 0
	pop r29
	pop r28
	pop r17
	pop r16
.LVL42:
	pop r15
.LVL43:
	pop r14
.LVL44:
	pop r13
	ret
	.cfi_endproc
.LFE20:
	.size	gsm_remove_char, .-gsm_remove_char
.global	gsm_command
	.type	gsm_command, @function
gsm_command:
.LFB21:
	.loc 1 494 0
	.cfi_startproc
.LVL45:
/* prologue: function */
/* frame size = 0 */
/* stack size = 0 */
.L__stack_usage = 0
	.loc 1 499 0
	call uart_puts
.LVL46:
	.loc 1 501 0
	ldi r24,lo8(10)
	call uart_putc
.LVL47:
	.loc 1 502 0
	call DoWatchDog
.LVL48:
.LBB27:
.LBB28:
	.loc 2 163 0
	ldi r18,lo8(1599999)
	ldi r24,hi8(1599999)
	ldi r25,hlo8(1599999)
	1: subi r18,1
	sbci r24,0
	sbci r25,0
	brne 1b
	rjmp .
	nop
.LBE28:
.LBE27:
	.loc 1 504 0
	call DoWatchDog
.LVL49:
	.loc 1 506 0
	ldi r24,lo8(1)
	ldi r25,0
	ret
	.cfi_endproc
.LFE21:
	.size	gsm_command, .-gsm_command
	.section	.rodata.str1.1
.LC1:
	.string	"AT+CMGF=1"
	.text
.global	gsm_text_sms
	.type	gsm_text_sms, @function
gsm_text_sms:
.LFB13:
	.loc 1 58 0
	.cfi_startproc
/* prologue: function */
/* frame size = 0 */
/* stack size = 0 */
.L__stack_usage = 0
	.loc 1 59 0
	ldi r24,lo8(.LC1)
	ldi r25,hi8(.LC1)
	call gsm_command
.LVL50:
	ret
	.cfi_endproc
.LFE13:
	.size	gsm_text_sms, .-gsm_text_sms
.global	gsm_flush_buffer
	.type	gsm_flush_buffer, @function
gsm_flush_buffer:
.LFB22:
	.loc 1 509 0
	.cfi_startproc
/* prologue: function */
/* frame size = 0 */
/* stack size = 0 */
.L__stack_usage = 0
.L17:
	.loc 1 513 0 discriminator 1
	lds r30,gsm_get_byte
	lds r31,gsm_get_byte+1
	icall
.LVL51:
	.loc 1 515 0 discriminator 1
	cp r24,__zero_reg__
	sbci r25,1
	brne .L17
/* epilogue start */
	.loc 1 516 0
	ret
	.cfi_endproc
.LFE22:
	.size	gsm_flush_buffer, .-gsm_flush_buffer
.global	gsm_readline
	.type	gsm_readline, @function
gsm_readline:
.LFB23:
	.loc 1 521 0
	.cfi_startproc
.LVL52:
	push r12
.LCFI20:
	.cfi_def_cfa_offset 3
	.cfi_offset 12, -2
	push r13
.LCFI21:
	.cfi_def_cfa_offset 4
	.cfi_offset 13, -3
	push r14
.LCFI22:
	.cfi_def_cfa_offset 5
	.cfi_offset 14, -4
	push r15
.LCFI23:
	.cfi_def_cfa_offset 6
	.cfi_offset 15, -5
	push r16
.LCFI24:
	.cfi_def_cfa_offset 7
	.cfi_offset 16, -6
	push r17
.LCFI25:
	.cfi_def_cfa_offset 8
	.cfi_offset 17, -7
	push r28
.LCFI26:
	.cfi_def_cfa_offset 9
	.cfi_offset 28, -8
	push r29
.LCFI27:
	.cfi_def_cfa_offset 10
	.cfi_offset 29, -9
/* prologue: function */
/* frame size = 0 */
/* stack size = 8 */
.L__stack_usage = 8
	movw r12,r24
	movw r14,r22
.LVL53:
	.loc 1 528 0
	movw r26,r24
	st X,__zero_reg__
	movw r16,r24
	.loc 1 523 0
	ldi r28,0
	ldi r29,0
.LVL54:
.L19:
	.loc 1 532 0
	lds r30,gsm_get_byte
	lds r31,gsm_get_byte+1
	icall
.LVL55:
	.loc 1 536 0
	cp r24,__zero_reg__
	ldi r27,1
	cpc r25,r27
	breq .L20
	.loc 1 539 0
	movw r18,r24
	subi r18,32
	sbc r19,__zero_reg__
	cpi r18,96
	cpc r19,__zero_reg__
	brsh .L21
	.loc 1 540 0
	cp r28,r14
	cpc r29,r15
	brge .L19
	.loc 1 541 0
	movw r30,r16
	st Z+,r24
.LVL56:
	.loc 1 542 0
	adiw r28,1
.LVL57:
	.loc 1 543 0
	movw r26,r16
	adiw r26,1
	st X,__zero_reg__
	.loc 1 542 0
	movw r16,r30
	rjmp .L19
.LVL58:
.L21:
	.loc 1 546 0
	cpi r24,13
	cpc r25,__zero_reg__
	breq .L20
	.loc 1 546 0 is_stmt 0 discriminator 1
	sbiw r24,10
	brne .L19
.L20:
.LVL59:
	.loc 1 553 0 is_stmt 1
	ldi r24,lo8(1)
	ldi r25,0
.LVL60:
	movw r30,r12
	ld r18,Z
	cpse r18,__zero_reg__
	rjmp .L23
	ldi r24,0
	ldi r25,0
.L23:
/* epilogue start */
	.loc 1 557 0
	pop r29
	pop r28
.LVL61:
	pop r17
	pop r16
	pop r15
	pop r14
.LVL62:
	pop r13
	pop r12
.LVL63:
	ret
	.cfi_endproc
.LFE23:
	.size	gsm_readline, .-gsm_readline
	.section	.rodata.str1.1
.LC2:
	.string	"+CMGR"
.LC3:
	.string	"REC READ"
.LC4:
	.string	"REC UNREAD"
.LC5:
	.string	","
	.text
.global	gsm_read_sms
	.type	gsm_read_sms, @function
gsm_read_sms:
.LFB15:
	.loc 1 119 0
	.cfi_startproc
.LVL64:
	push r12
.LCFI28:
	.cfi_def_cfa_offset 3
	.cfi_offset 12, -2
	push r13
.LCFI29:
	.cfi_def_cfa_offset 4
	.cfi_offset 13, -3
	push r14
.LCFI30:
	.cfi_def_cfa_offset 5
	.cfi_offset 14, -4
	push r15
.LCFI31:
	.cfi_def_cfa_offset 6
	.cfi_offset 15, -5
	push r16
.LCFI32:
	.cfi_def_cfa_offset 7
	.cfi_offset 16, -6
	push r17
.LCFI33:
	.cfi_def_cfa_offset 8
	.cfi_offset 17, -7
	push r28
.LCFI34:
	.cfi_def_cfa_offset 9
	.cfi_offset 28, -8
	push r29
.LCFI35:
	.cfi_def_cfa_offset 10
	.cfi_offset 29, -9
	in r28,__SP_L__
	in r29,__SP_H__
.LCFI36:
	.cfi_def_cfa_register 28
	subi r28,-112
	sbci r29,1
.LCFI37:
	.cfi_def_cfa_offset 410
	in __tmp_reg__,__SREG__
	cli
	out __SP_H__,r29
	out __SREG__,__tmp_reg__
	out __SP_L__,r28
/* prologue: function */
/* frame size = 400 */
/* stack size = 408 */
.L__stack_usage = 408
	movw r16,r24
	movw r12,r22
	.loc 1 126 0
	call gsm_flush_buffer
.LVL65:
	.loc 1 129 0
	ldi r24,lo8(__c.2332)
	ldi r25,hi8(__c.2332)
	call uart_puts_p
.LVL66:
	.loc 1 130 0
	movw r24,r16
	call uart_put_int
.LVL67:
	.loc 1 131 0
	ldi r24,lo8(__c.2334)
	ldi r25,hi8(__c.2334)
	call uart_puts_p
.LVL68:
	.loc 1 132 0
	call DoWatchDog
.LVL69:
.LBB29:
.LBB30:
	.loc 2 163 0
	ldi r18,lo8(1599999)
	ldi r24,hi8(1599999)
	ldi r25,hlo8(1599999)
	1: subi r18,1
	sbci r24,0
	sbci r25,0
	brne 1b
	rjmp .
	nop
.LBE30:
.LBE29:
	.loc 1 134 0
	call DoWatchDog
.LVL70:
	ldi r16,lo8(-56)
	ldi r17,0
.LVL71:
.L31:
	.loc 1 138 0
	ldi r22,lo8(-56)
	ldi r23,0
	movw r24,r28
	adiw r24,1
	call gsm_readline
.LVL72:
	movw r14,r24
	cpi r24,1
	cpc r25,__zero_reg__
	breq .+2
	rjmp .L25
	.loc 1 139 0
	ldi r22,lo8(.LC2)
	ldi r23,hi8(.LC2)
	movw r24,r28
	adiw r24,1
	call strstr
.LVL73:
	or r24,r25
	brne .+2
	rjmp .L25
	.loc 1 144 0
	ldi r22,lo8(.LC3)
	ldi r23,hi8(.LC3)
	movw r24,r28
	adiw r24,1
	call strstr
.LVL74:
	or r24,r25
	breq .L26
	.loc 1 145 0
	ldi r24,lo8(1)
	movw r30,r12
	subi r30,51
	sbci r31,-1
	st Z,r24
	rjmp .L27
.L26:
	.loc 1 146 0
	ldi r22,lo8(.LC4)
	ldi r23,hi8(.LC4)
	movw r24,r28
	adiw r24,1
	call strstr
.LVL75:
	or r24,r25
	breq .L27
	.loc 1 147 0
	movw r30,r12
	subi r30,51
	sbci r31,-1
	st Z,__zero_reg__
.L27:
	.loc 1 150 0
	ldi r16,lo8(.LC5)
	ldi r17,hi8(.LC5)
.LVL76:
	ldi r18,lo8(1)
	ldi r20,lo8(-56)
	movw r22,r28
	subi r22,55
	sbci r23,-1
	movw r24,r28
	adiw r24,1
	call gsm_read_token
.LVL77:
	.loc 1 152 0
	ldi r20,lo8(34)
	movw r22,r28
	subi r22,55
	sbci r23,-1
	movw r24,r22
	call gsm_remove_char
.LVL78:
	.loc 1 153 0
	movw r22,r28
	subi r22,55
	sbci r23,-1
	movw r24,r12
	subi r24,96
	sbci r25,-1
	call strcpy
.LVL79:
	.loc 1 156 0
	ldi r18,lo8(3)
	ldi r20,lo8(-56)
	movw r22,r28
	subi r22,55
	sbci r23,-1
	movw r24,r28
	adiw r24,1
	call gsm_read_token
.LVL80:
	.loc 1 157 0
	ldi r20,lo8(34)
	movw r22,r28
	subi r22,55
	sbci r23,-1
	movw r24,r22
	call gsm_remove_char
.LVL81:
	.loc 1 158 0
	movw r22,r28
	subi r22,55
	sbci r23,-1
	movw r24,r12
	subi r24,76
	sbci r25,-1
	call strcpy
.LVL82:
.L29:
	.loc 1 160 0 discriminator 1
	ldi r22,lo8(-56)
	ldi r23,0
	movw r24,r28
	adiw r24,1
	call gsm_readline
.LVL83:
	or r24,r25
	breq .L29
	.loc 1 161 0
	movw r22,r28
	subi r22,-1
	sbci r23,-1
	movw r24,r12
	call strcpy
.LVL84:
	.loc 1 162 0
	rjmp .L30
.LVL85:
.L25:
	subi r16,1
	sbc r17,__zero_reg__
.LVL86:
	.loc 1 137 0
	cp r16,__zero_reg__
	cpc r17,__zero_reg__
	breq .+2
	rjmp .L31
	.loc 1 167 0
	mov r14,__zero_reg__
	mov r15,__zero_reg__
.LVL87:
.L30:
	.loc 1 168 0
	movw r24,r14
/* epilogue start */
	subi r28,112
	sbci r29,-2
	in __tmp_reg__,__SREG__
	cli
	out __SP_H__,r29
	out __SREG__,__tmp_reg__
	out __SP_L__,r28
	pop r29
	pop r28
	pop r17
	pop r16
	pop r15
	pop r14
	pop r13
	pop r12
.LVL88:
	ret
	.cfi_endproc
.LFE15:
	.size	gsm_read_sms, .-gsm_read_sms
	.section	.rodata.str1.1
.LC6:
	.string	"AT+CMGL"
.LC7:
	.string	":"
	.text
.global	gsm_check_new_sms
	.type	gsm_check_new_sms, @function
gsm_check_new_sms:
.LFB14:
	.loc 1 63 0
	.cfi_startproc
.LVL89:
	push r10
.LCFI38:
	.cfi_def_cfa_offset 3
	.cfi_offset 10, -2
	push r11
.LCFI39:
	.cfi_def_cfa_offset 4
	.cfi_offset 11, -3
	push r12
.LCFI40:
	.cfi_def_cfa_offset 5
	.cfi_offset 12, -4
	push r13
.LCFI41:
	.cfi_def_cfa_offset 6
	.cfi_offset 13, -5
	push r14
.LCFI42:
	.cfi_def_cfa_offset 7
	.cfi_offset 14, -6
	push r15
.LCFI43:
	.cfi_def_cfa_offset 8
	.cfi_offset 15, -7
	push r16
.LCFI44:
	.cfi_def_cfa_offset 9
	.cfi_offset 16, -8
	push r17
.LCFI45:
	.cfi_def_cfa_offset 10
	.cfi_offset 17, -9
	push r28
.LCFI46:
	.cfi_def_cfa_offset 11
	.cfi_offset 28, -10
	push r29
.LCFI47:
	.cfi_def_cfa_offset 12
	.cfi_offset 29, -11
	in r28,__SP_L__
	in r29,__SP_H__
.LCFI48:
	.cfi_def_cfa_register 28
	subi r28,94
	sbci r29,1
.LCFI49:
	.cfi_def_cfa_offset 362
	in __tmp_reg__,__SREG__
	cli
	out __SP_H__,r29
	out __SREG__,__tmp_reg__
	out __SP_L__,r28
/* prologue: function */
/* frame size = 350 */
/* stack size = 360 */
.L__stack_usage = 360
	movw r14,r24
.LVL90:
	.loc 1 71 0
	lds r24,index.2312
.LVL91:
	cpse r24,__zero_reg__
	rjmp .L45
	ldi r30,lo8(index.2312+1)
	ldi r31,hi8(index.2312+1)
	.loc 1 70 0
	ldi r16,lo8(1)
	ldi r17,0
.LVL92:
.L38:
	.loc 1 71 0
	ld r24,Z+
	tst r24
	breq .L35
	rjmp .L34
.LVL93:
.L45:
	.loc 1 70 0
	ldi r16,0
	ldi r17,0
.LVL94:
.L34:
	.loc 1 72 0
	movw r22,r14
	ldi r25,0
	call gsm_read_sms
.LVL95:
	.loc 1 73 0
	movw r30,r16
	subi r30,lo8(-(index.2312))
	sbci r31,hi8(-(index.2312))
	ld r24,Z
.LVL96:
	.loc 1 74 0
	st Z,__zero_reg__
	.loc 1 75 0
	ldi r25,0
	rjmp .L36
.LVL97:
.L35:
	.loc 1 70 0
	subi r16,-1
	sbci r17,-1
.LVL98:
	cpi r16,15
	cpc r17,__zero_reg__
	brne .L38
	.loc 1 81 0
	ldi r24,lo8(.LC6)
	ldi r25,hi8(.LC6)
	call gsm_command
.LVL99:
	.loc 1 82 0
	call DoWatchDog
.LVL100:
.LBB31:
.LBB32:
	.loc 2 163 0
	ldi r18,lo8(1599999)
	ldi r24,hi8(1599999)
	ldi r25,hlo8(1599999)
	1: subi r18,1
	sbci r24,0
	sbci r25,0
	brne 1b
	rjmp .
	nop
.LBE32:
.LBE31:
	.loc 1 84 0
	call DoWatchDog
.LVL101:
	.loc 1 66 0
	mov __tmp_reg__,r31
	ldi r31,lo8(index.2312)
	mov r12,r31
	ldi r31,hi8(index.2312)
	mov r13,r31
	mov r31,__tmp_reg__
	.loc 1 87 0
	ldi r16,0
	ldi r17,0
	clr r10
	inc r10
	mov r11,__zero_reg__
.LVL102:
.L39:
	.loc 1 88 0
	ldi r22,lo8(44)
	ldi r23,lo8(1)
	movw r24,r28
	adiw r24,1
	call gsm_readline
.LVL103:
	sbiw r24,1
	brne .L40
	.loc 1 89 0
	ldi r22,lo8(.LC4)
	ldi r23,hi8(.LC4)
	movw r24,r28
	adiw r24,1
	call strstr
.LVL104:
	or r24,r25
	breq .L40
	.loc 1 92 0
	ldi r16,lo8(.LC5)
	ldi r17,hi8(.LC5)
.LVL105:
	ldi r18,0
	ldi r20,lo8(50)
	movw r22,r28
	subi r22,-45
	sbci r23,-2
	movw r24,r28
	adiw r24,1
	call gsm_read_token
.LVL106:
	.loc 1 93 0
	ldi r16,lo8(.LC7)
	ldi r17,hi8(.LC7)
	ldi r18,lo8(1)
	ldi r20,lo8(50)
	movw r22,r28
	subi r22,-45
	sbci r23,-2
	movw r24,r22
	call gsm_read_token
.LVL107:
	.loc 1 95 0
	movw r24,r28
	subi r24,-45
	sbci r25,-2
	call atoi
.LVL108:
	movw r30,r12
	st Z+,r24
	movw r12,r30
.LVL109:
	.loc 1 87 0
	mov r16,r10
	mov r17,r11
	rjmp .L39
.LVL110:
.L40:
	subi r16,-1
	sbci r17,-1
.LVL111:
	cpi r16,-56
	cpc r17,__zero_reg__
	brlt .L39
.LVL112:
	.loc 1 105 0 discriminator 1
	lds r24,index.2312
	cpse r24,__zero_reg__
	rjmp .L46
	.loc 1 105 0 is_stmt 0
	ldi r30,lo8(index.2312+1)
	ldi r31,hi8(index.2312+1)
	.loc 1 104 0 is_stmt 1
	ldi r16,lo8(1)
	ldi r17,0
.LVL113:
.L44:
	.loc 1 105 0
	ld r24,Z+
	tst r24
	breq .L43
	rjmp .L42
.LVL114:
.L46:
	ldi r16,0
	ldi r17,0
.LVL115:
.L42:
	.loc 1 107 0
	movw r22,r14
	ldi r25,0
	call gsm_read_sms
.LVL116:
	.loc 1 108 0
	movw r30,r16
	subi r30,lo8(-(index.2312))
	sbci r31,hi8(-(index.2312))
	ld r24,Z
.LVL117:
	.loc 1 109 0
	st Z,__zero_reg__
	.loc 1 110 0
	ldi r25,0
	rjmp .L36
.LVL118:
.L43:
	.loc 1 104 0
	subi r16,-1
	sbci r17,-1
.LVL119:
	cpi r16,15
	cpc r17,__zero_reg__
	brne .L44
	.loc 1 115 0
	ldi r24,0
	ldi r25,0
.LVL120:
.L36:
/* epilogue start */
	.loc 1 116 0
	subi r28,-94
	sbci r29,-2
	in __tmp_reg__,__SREG__
	cli
	out __SP_H__,r29
	out __SREG__,__tmp_reg__
	out __SP_L__,r28
	pop r29
	pop r28
	pop r17
	pop r16
	pop r15
	pop r14
.LVL121:
	pop r13
	pop r12
	pop r11
	pop r10
	ret
	.cfi_endproc
.LFE14:
	.size	gsm_check_new_sms, .-gsm_check_new_sms
	.section	.rodata.str1.1
.LC8:
	.string	"ERROR"
.LC9:
	.string	"+CMGS"
.LC10:
	.string	"+CDS: 6"
	.text
.global	gsm_send_sms
	.type	gsm_send_sms, @function
gsm_send_sms:
.LFB16:
	.loc 1 171 0
	.cfi_startproc
.LVL122:
	push r2
.LCFI50:
	.cfi_def_cfa_offset 3
	.cfi_offset 2, -2
	push r3
.LCFI51:
	.cfi_def_cfa_offset 4
	.cfi_offset 3, -3
	push r4
.LCFI52:
	.cfi_def_cfa_offset 5
	.cfi_offset 4, -4
	push r5
.LCFI53:
	.cfi_def_cfa_offset 6
	.cfi_offset 5, -5
	push r6
.LCFI54:
	.cfi_def_cfa_offset 7
	.cfi_offset 6, -6
	push r7
.LCFI55:
	.cfi_def_cfa_offset 8
	.cfi_offset 7, -7
	push r8
.LCFI56:
	.cfi_def_cfa_offset 9
	.cfi_offset 8, -8
	push r9
.LCFI57:
	.cfi_def_cfa_offset 10
	.cfi_offset 9, -9
	push r10
.LCFI58:
	.cfi_def_cfa_offset 11
	.cfi_offset 10, -10
	push r11
.LCFI59:
	.cfi_def_cfa_offset 12
	.cfi_offset 11, -11
	push r12
.LCFI60:
	.cfi_def_cfa_offset 13
	.cfi_offset 12, -12
	push r13
.LCFI61:
	.cfi_def_cfa_offset 14
	.cfi_offset 13, -13
	push r14
.LCFI62:
	.cfi_def_cfa_offset 15
	.cfi_offset 14, -14
	push r15
.LCFI63:
	.cfi_def_cfa_offset 16
	.cfi_offset 15, -15
	push r16
.LCFI64:
	.cfi_def_cfa_offset 17
	.cfi_offset 16, -16
	push r17
.LCFI65:
	.cfi_def_cfa_offset 18
	.cfi_offset 17, -17
	push r28
.LCFI66:
	.cfi_def_cfa_offset 19
	.cfi_offset 28, -18
	push r29
.LCFI67:
	.cfi_def_cfa_offset 20
	.cfi_offset 29, -19
	in r28,__SP_L__
	in r29,__SP_H__
.LCFI68:
	.cfi_def_cfa_register 28
	subi r28,-106
	sbc r29,__zero_reg__
.LCFI69:
	.cfi_def_cfa_offset 170
	in __tmp_reg__,__SREG__
	cli
	out __SP_H__,r29
	out __SREG__,__tmp_reg__
	out __SP_L__,r28
/* prologue: function */
/* frame size = 150 */
/* stack size = 168 */
.L__stack_usage = 168
	movw r6,r24
	movw r2,r22
	movw r4,r20
.LVL123:
	.loc 1 176 0
	tst r21
	brge .+2
	rjmp .L58
	.loc 1 173 0
	mov r10,__zero_reg__
	mov r11,__zero_reg__
	.loc 1 176 0
	mov r8,__zero_reg__
	mov r9,__zero_reg__
.LVL124:
.L57:
	.loc 1 179 0
	call gsm_flush_buffer
.LVL125:
	.loc 1 183 0
	ldi r24,lo8(__c.2352)
	ldi r25,hi8(__c.2352)
	call uart_puts_p
.LVL126:
	.loc 1 186 0
	movw r24,r6
	call uart_puts
.LVL127:
	.loc 1 188 0
	ldi r24,lo8(__c.2354)
	ldi r25,hi8(__c.2354)
	call uart_puts_p
.LVL128:
	.loc 1 190 0
	movw r24,r2
	call uart_puts
.LVL129:
	.loc 1 192 0
	lds r30,gsm_send_byte
	lds r31,gsm_send_byte+1
	ldi r24,lo8(26)
	icall
.LVL130:
	.loc 1 194 0
	call DoWatchDog
.LVL131:
.LBB33:
.LBB34:
	.loc 2 163 0
	ldi r18,lo8(1599999)
	ldi r24,hi8(1599999)
	ldi r25,hlo8(1599999)
	1: subi r18,1
	sbci r24,0
	sbci r25,0
	brne 1b
	rjmp .
	nop
.LBE34:
.LBE33:
	.loc 1 196 0
	call DoWatchDog
.LVL132:
.LBB35:
.LBB36:
	.loc 2 163 0
	ldi r18,lo8(1599999)
	ldi r24,hi8(1599999)
	ldi r25,hlo8(1599999)
	1: subi r18,1
	sbci r24,0
	sbci r25,0
	brne 1b
	rjmp .
	nop
.LBE36:
.LBE35:
	.loc 1 198 0
	call DoWatchDog
.LVL133:
.LBB37:
.LBB38:
	.loc 2 163 0
	ldi r18,lo8(1599999)
	ldi r24,hi8(1599999)
	ldi r25,hlo8(1599999)
	1: subi r18,1
	sbci r24,0
	sbci r25,0
	brne 1b
	rjmp .
	nop
.LBE38:
.LBE37:
	.loc 1 200 0
	call DoWatchDog
.LVL134:
	ldi r16,lo8(50)
	ldi r17,0
.LVL135:
.L52:
	.loc 1 204 0
	call DoWatchDog
.LVL136:
.LBB39:
.LBB40:
	.loc 2 163 0
	ldi r18,lo8(159999)
	ldi r24,hi8(159999)
	ldi r25,hlo8(159999)
	1: subi r18,1
	sbci r24,0
	sbci r25,0
	brne 1b
	rjmp .
	nop
.LBE40:
.LBE39:
	.loc 1 206 0
	ldi r22,lo8(100)
	ldi r23,0
	movw r24,r28
	adiw r24,1
	call gsm_readline
.LVL137:
	sbiw r24,1
	brne .L50
	.loc 1 213 0
	ldi r22,lo8(.LC8)
	ldi r23,hi8(.LC8)
	movw r24,r28
	adiw r24,1
	call strstr
.LVL138:
	or r24,r25
	breq .+2
	rjmp .L59
	.loc 1 215 0
	ldi r22,lo8(.LC9)
	ldi r23,hi8(.LC9)
	movw r24,r28
	adiw r24,1
	call strstr
.LVL139:
	or r24,r25
	breq .L50
	.loc 1 216 0
	ldi r16,lo8(.LC7)
	ldi r17,hi8(.LC7)
.LVL140:
	ldi r18,lo8(1)
	ldi r20,lo8(50)
	movw r22,r28
	subi r22,-101
	sbci r23,-1
	movw r24,r28
	adiw r24,1
	call gsm_read_token
.LVL141:
	.loc 1 217 0
	movw r24,r28
	subi r24,-101
	sbci r25,-1
	call atoi
.LVL142:
	movw r10,r24
.LVL143:
	.loc 1 218 0
	cp r4,__zero_reg__
	cpc r5,__zero_reg__
	brne .L51
	rjmp .L60
.LVL144:
.L50:
	subi r16,1
	sbc r17,__zero_reg__
.LVL145:
	.loc 1 202 0
	cp r16,__zero_reg__
	cpc r17,__zero_reg__
	brne .L52
.LVL146:
.L51:
	.loc 1 226 0
	cp __zero_reg__,r10
	cpc __zero_reg__,r11
	brlt .+2
	rjmp .L61
	mov __tmp_reg__,r31
	ldi r31,lo8(40)
	mov r14,r31
	mov r15,__zero_reg__
	mov r31,__tmp_reg__
.L56:
.LVL147:
	.loc 1 231 0
	call DoWatchDog
.LVL148:
.LBB41:
.LBB42:
	.loc 2 163 0
	ldi r18,lo8(799999)
	ldi r24,hi8(799999)
	ldi r25,hlo8(799999)
	1: subi r18,1
	sbci r24,0
	sbci r25,0
	brne 1b
	rjmp .
	nop
.LBE42:
.LBE41:
	.loc 1 233 0
	ldi r22,lo8(100)
	ldi r23,0
	movw r24,r28
	adiw r24,1
	call gsm_readline
.LVL149:
	movw r12,r24
	cpi r24,1
	cpc r25,__zero_reg__
	breq .+2
	rjmp .L53
	.loc 1 236 0
	ldi r22,lo8(.LC10)
	ldi r23,hi8(.LC10)
	movw r24,r28
	adiw r24,1
	call strstr
.LVL150:
	or r24,r25
	breq .L53
	.loc 1 239 0
	ldi r16,lo8(.LC5)
	ldi r17,hi8(.LC5)
	ldi r18,lo8(1)
	ldi r20,lo8(50)
	movw r22,r28
	subi r22,-101
	sbci r23,-1
	movw r24,r28
	adiw r24,1
	call gsm_read_token
.LVL151:
	or r24,r25
	brne .L53
	.loc 1 242 0
	movw r24,r28
	subi r24,-101
	sbci r25,-1
	call atoi
.LVL152:
	cp r24,r10
	cpc r25,r11
	brne .L53
	.loc 1 246 0
	ldi r18,lo8(8)
	ldi r20,lo8(50)
	movw r22,r28
	subi r22,-101
	sbci r23,-1
	movw r24,r28
	adiw r24,1
	call gsm_read_token
.LVL153:
	or r24,r25
	brne .L54
	.loc 1 247 0
	movw r24,r28
	subi r24,-101
	sbci r25,-1
	call atoi
.LVL154:
	or r24,r25
	breq .L49
.L54:
	.loc 1 251 0
	ldi r16,lo8(.LC5)
	ldi r17,hi8(.LC5)
	ldi r18,lo8(6)
	ldi r20,lo8(50)
	movw r22,r28
	subi r22,-101
	sbci r23,-1
	movw r24,r28
	adiw r24,1
	call gsm_read_token
.LVL155:
	or r24,r25
	brne .L53
	.loc 1 252 0
	movw r24,r28
	subi r24,-101
	sbci r25,-1
	call atoi
.LVL156:
	or r24,r25
	breq .L49
.L53:
.LVL157:
	ldi r24,1
	sub r14,r24
	sbc r15,__zero_reg__
.LVL158:
	.loc 1 229 0
	cp r14,__zero_reg__
	cpc r15,__zero_reg__
	breq .+2
	rjmp .L56
	.loc 1 176 0
	ldi r25,-1
	sub r8,r25
	sbc r9,r25
.LVL159:
	cp r4,r8
	cpc r5,r9
	brlt .+2
	rjmp .L57
	rjmp .L62
.LVL160:
.L58:
	.loc 1 256 0
	mov r12,__zero_reg__
	mov r13,__zero_reg__
	rjmp .L49
.LVL161:
.L59:
	.loc 1 213 0
	mov r12,__zero_reg__
	mov r13,__zero_reg__
	rjmp .L49
.LVL162:
.L60:
	.loc 1 217 0
	movw r12,r24
	rjmp .L49
.L61:
	.loc 1 226 0
	mov r12,__zero_reg__
	mov r13,__zero_reg__
	rjmp .L49
.LVL163:
.L62:
	.loc 1 256 0
	mov r12,__zero_reg__
	mov r13,__zero_reg__
.LVL164:
.L49:
	.loc 1 257 0
	movw r24,r12
/* epilogue start */
	subi r28,106
	sbci r29,-1
	in __tmp_reg__,__SREG__
	cli
	out __SP_H__,r29
	out __SREG__,__tmp_reg__
	out __SP_L__,r28
	pop r29
	pop r28
	pop r17
	pop r16
	pop r15
	pop r14
	pop r13
	pop r12
	pop r11
	pop r10
	pop r9
	pop r8
	pop r7
	pop r6
.LVL165:
	pop r5
	pop r4
.LVL166:
	pop r3
	pop r2
.LVL167:
	ret
	.cfi_endproc
.LFE16:
	.size	gsm_send_sms, .-gsm_send_sms
	.section	.rodata.str1.1
.LC11:
	.string	"AT+CPMS?"
.LC12:
	.string	"+CPMS"
.LC13:
	.string	"SM"
	.text
.global	gsm_SIM_mem_used
	.type	gsm_SIM_mem_used, @function
gsm_SIM_mem_used:
.LFB17:
	.loc 1 260 0
	.cfi_startproc
.LVL168:
	push r10
.LCFI70:
	.cfi_def_cfa_offset 3
	.cfi_offset 10, -2
	push r11
.LCFI71:
	.cfi_def_cfa_offset 4
	.cfi_offset 11, -3
	push r12
.LCFI72:
	.cfi_def_cfa_offset 5
	.cfi_offset 12, -4
	push r13
.LCFI73:
	.cfi_def_cfa_offset 6
	.cfi_offset 13, -5
	push r14
.LCFI74:
	.cfi_def_cfa_offset 7
	.cfi_offset 14, -6
	push r15
.LCFI75:
	.cfi_def_cfa_offset 8
	.cfi_offset 15, -7
	push r16
.LCFI76:
	.cfi_def_cfa_offset 9
	.cfi_offset 16, -8
	push r17
.LCFI77:
	.cfi_def_cfa_offset 10
	.cfi_offset 17, -9
	push r28
.LCFI78:
	.cfi_def_cfa_offset 11
	.cfi_offset 28, -10
	push r29
.LCFI79:
	.cfi_def_cfa_offset 12
	.cfi_offset 29, -11
	in r28,__SP_L__
	in r29,__SP_H__
.LCFI80:
	.cfi_def_cfa_register 28
	subi r28,-106
	sbc r29,__zero_reg__
.LCFI81:
	.cfi_def_cfa_offset 162
	in __tmp_reg__,__SREG__
	cli
	out __SP_H__,r29
	out __SREG__,__tmp_reg__
	out __SP_L__,r28
/* prologue: function */
/* frame size = 150 */
/* stack size = 160 */
.L__stack_usage = 160
	movw r12,r24
	.loc 1 264 0
	ldi r24,lo8(.LC11)
	ldi r25,hi8(.LC11)
.LVL169:
	call gsm_command
.LVL170:
	ldi r16,lo8(-56)
	ldi r17,0
.LVL171:
.L66:
	.loc 1 268 0
	ldi r22,lo8(100)
	ldi r23,0
	movw r24,r28
	adiw r24,1
	call gsm_readline
.LVL172:
	sbiw r24,1
	breq .+2
	rjmp .L64
	.loc 1 269 0
	ldi r22,lo8(.LC12)
	ldi r23,hi8(.LC12)
	movw r24,r28
	adiw r24,1
	call strstr
.LVL173:
	or r24,r25
	breq .L64
	.loc 1 273 0
	ldi r22,lo8(.LC13)
	ldi r23,hi8(.LC13)
	movw r24,r28
	adiw r24,1
	call strstr
.LVL174:
	movw r14,r24
.LVL175:
	.loc 1 274 0
	ldi r16,lo8(.LC5)
	ldi r17,hi8(.LC5)
.LVL176:
	ldi r18,lo8(1)
	ldi r20,lo8(50)
	movw r22,r28
	subi r22,-101
	sbci r23,-1
	call gsm_read_token
.LVL177:
	or r24,r25
	brne .L67
	.loc 1 275 0
	movw r24,r28
	subi r24,-101
	sbci r25,-1
	call atoi
.LVL178:
	movw r10,r24
.LVL179:
	.loc 1 277 0
	ldi r18,lo8(2)
	ldi r20,lo8(50)
	movw r22,r28
	subi r22,-101
	sbci r23,-1
	movw r24,r14
	call gsm_read_token
.LVL180:
	or r24,r25
	brne .L68
	.loc 1 278 0
	movw r24,r28
	subi r24,-101
	sbci r25,-1
	call atoi
.LVL181:
	movw r22,r24
.LVL182:
	.loc 1 279 0
	sbiw r24,0
	breq .L69
	.loc 1 281 0
	movw r30,r12
	std Z+1,r25
	st Z,r24
	.loc 1 282 0
	ldi r18,lo8(100)
	mul r18,r10
	movw r24,r0
	mul r18,r11
	add r25,r0
	clr __zero_reg__
	call __divmodhi4
.LVL183:
	movw r24,r22
	rjmp .L65
.LVL184:
.L64:
	subi r16,1
	sbc r17,__zero_reg__
.LVL185:
	.loc 1 267 0
	cp r16,__zero_reg__
	cpc r17,__zero_reg__
	breq .+2
	rjmp .L66
	rjmp .L70
.LVL186:
.L67:
	.loc 1 274 0
	ldi r24,lo8(-1)
	ldi r25,lo8(-1)
	rjmp .L65
.LVL187:
.L68:
	.loc 1 277 0
	ldi r24,lo8(-1)
	ldi r25,lo8(-1)
	rjmp .L65
.LVL188:
.L69:
	.loc 1 279 0
	ldi r24,lo8(-1)
	ldi r25,lo8(-1)
	rjmp .L65
.LVL189:
.L70:
	.loc 1 287 0
	ldi r24,lo8(-1)
	ldi r25,lo8(-1)
.LVL190:
.L65:
/* epilogue start */
	.loc 1 288 0
	subi r28,106
	sbci r29,-1
	in __tmp_reg__,__SREG__
	cli
	out __SP_H__,r29
	out __SREG__,__tmp_reg__
	out __SP_L__,r28
	pop r29
	pop r28
	pop r17
	pop r16
	pop r15
	pop r14
	pop r13
	pop r12
.LVL191:
	pop r11
	pop r10
	ret
	.cfi_endproc
.LFE17:
	.size	gsm_SIM_mem_used, .-gsm_SIM_mem_used
	.section	.progmem.data,"a",@progbits
	.type	__c.2382, @object
	.size	__c.2382, 9
__c.2382:
	.string	"AT+CMGD="
	.type	__c.2354, @object
	.size	__c.2354, 3
__c.2354:
	.string	"\"\n"
	.type	__c.2352, @object
	.size	__c.2352, 10
__c.2352:
	.string	"AT+CMGS=\""
	.type	__c.2334, @object
	.size	__c.2334, 2
__c.2334:
	.string	"\n"
	.type	__c.2332, @object
	.size	__c.2332, 9
__c.2332:
	.string	"AT+CMGR="
	.local	index.2312
	.comm	index.2312,15,1
.global	gsm_send_byte
	.data
	.type	gsm_send_byte, @object
	.size	gsm_send_byte, 2
gsm_send_byte:
	.word	gs(uart_putc)
.global	gsm_get_byte
	.type	gsm_get_byte, @object
	.size	gsm_get_byte, 2
gsm_get_byte:
	.word	gs(uart_getc)
	.text
.Letext0:
	.file 3 "/avr8-gnu-toolchain-linux_x86/avr/include/stdint.h"
	.file 4 "/avr8-gnu-toolchain-linux_x86/lib/gcc/avr/4.8.1/include/stddef.h"
	.file 5 "../gsm-sms/sms.h"
	.file 6 "/home/izhuk/git/PumpRegulator/A328Pn3310DS18x20_n/uart/uart.h"
	.file 7 "/home/izhuk/git/PumpRegulator/A328Pn3310DS18x20_n/uart/uart_addon.h"
	.file 8 "/avr8-gnu-toolchain-linux_x86/avr/include/stdlib.h"
	.file 9 "/avr8-gnu-toolchain-linux_x86/avr/include/string.h"
	.file 10 "<built-in>"