	.file	"uart.c"
__SP_H__ = 0x3e
__SP_L__ = 0x3d
__SREG__ = 0x3f
__tmp_reg__ = 0
__zero_reg__ = 1
	.text
.Ltext0:
	.cfi_sections	.debug_frame
.global	__vector_18
	.type	__vector_18, @function
__vector_18:
.LFB1:
	.file 1 "../uart/uart.c"
	.loc 1 324 0
	.cfi_startproc
	push r1
.LCFI0:
	.cfi_def_cfa_offset 3
	.cfi_offset 1, -2
	push r0
.LCFI1:
	.cfi_def_cfa_offset 4
	.cfi_offset 0, -3
	in r0,__SREG__
	push r0
	clr __zero_reg__
	push r18
.LCFI2:
	.cfi_def_cfa_offset 5
	.cfi_offset 18, -4
	push r24
.LCFI3:
	.cfi_def_cfa_offset 6
	.cfi_offset 24, -5
	push r25
.LCFI4:
	.cfi_def_cfa_offset 7
	.cfi_offset 25, -6
	push r30
.LCFI5:
	.cfi_def_cfa_offset 8
	.cfi_offset 30, -7
	push r31
.LCFI6:
	.cfi_def_cfa_offset 9
	.cfi_offset 31, -8
/* prologue: Signal */
/* frame size = 0 */
/* stack size = 8 */
.L__stack_usage = 8
	.loc 1 332 0
	lds r24,192
.LVL0:
	.loc 1 333 0
	lds r18,198
.LVL1:
	.loc 1 341 0
	andi r24,lo8(24)
.LVL2:
	.loc 1 347 0
	lds r30,UART_RxHead
	subi r30,lo8(-(1))
	andi r30,lo8(31)
.LVL3:
	.loc 1 349 0
	lds r25,UART_RxTail
	cp r30,r25
	breq .L3
	.loc 1 354 0
	sts UART_RxHead,r30
	.loc 1 356 0
	ldi r31,0
	subi r30,lo8(-(UART_RxBuf))
	sbci r31,hi8(-(UART_RxBuf))
.LVL4:
	st Z,r18
.LVL5:
	rjmp .L2
.LVL6:
.L3:
	.loc 1 351 0
	ldi r24,lo8(2)
.LVL7:
.L2:
	.loc 1 358 0
	sts UART_LastRxError,r24
/* epilogue start */
	.loc 1 359 0
	pop r31
	pop r30
	pop r25
	pop r24
.LVL8:
	pop r18
.LVL9:
	pop r0
	out __SREG__,r0
.LVL10:
	pop r0
	pop r1
	reti
	.cfi_endproc
.LFE1:
	.size	__vector_18, .-__vector_18
.global	__vector_19
	.type	__vector_19, @function
__vector_19:
.LFB2:
	.loc 1 367 0
	.cfi_startproc
	push r1
.LCFI7:
	.cfi_def_cfa_offset 3
	.cfi_offset 1, -2
	push r0
.LCFI8:
	.cfi_def_cfa_offset 4
	.cfi_offset 0, -3
	in r0,__SREG__
	push r0
	clr __zero_reg__
	push r24
.LCFI9:
	.cfi_def_cfa_offset 5
	.cfi_offset 24, -4
	push r25
.LCFI10:
	.cfi_def_cfa_offset 6
	.cfi_offset 25, -5
	push r30
.LCFI11:
	.cfi_def_cfa_offset 7
	.cfi_offset 30, -6
	push r31
.LCFI12:
	.cfi_def_cfa_offset 8
	.cfi_offset 31, -7
/* prologue: Signal */
/* frame size = 0 */
/* stack size = 7 */
.L__stack_usage = 7
	.loc 1 371 0
	lds r25,UART_TxHead
	lds r24,UART_TxTail
	cp r25,r24
	breq .L5
	.loc 1 373 0
	lds r30,UART_TxTail
	subi r30,lo8(-(1))
	andi r30,lo8(31)
.LVL11:
	.loc 1 374 0
	sts UART_TxTail,r30
	.loc 1 376 0
	ldi r31,0
	subi r30,lo8(-(UART_TxBuf))
	sbci r31,hi8(-(UART_TxBuf))
.LVL12:
	ld r24,Z
	sts 198,r24
.LVL13:
	rjmp .L4
.L5:
	.loc 1 379 0
	ldi r30,lo8(-63)
	ldi r31,0
	ld r24,Z
	andi r24,lo8(-33)
	st Z,r24
.L4:
/* epilogue start */
	.loc 1 381 0
	pop r31
	pop r30
	pop r25
	pop r24
	pop r0
	out __SREG__,r0
	pop r0
	pop r1
	reti
	.cfi_endproc
.LFE2:
	.size	__vector_19, .-__vector_19
.global	uart_init
	.type	uart_init, @function
uart_init:
.LFB3:
	.loc 1 391 0
	.cfi_startproc
.LVL14:
/* prologue: function */
/* frame size = 0 */
/* stack size = 0 */
.L__stack_usage = 0
	.loc 1 392 0
	sts UART_TxHead,__zero_reg__
	.loc 1 393 0
	sts UART_TxTail,__zero_reg__
	.loc 1 394 0
	sts UART_RxHead,__zero_reg__
	.loc 1 395 0
	sts UART_RxTail,__zero_reg__
	.loc 1 426 0
	tst r25
	brge .L8
	.loc 1 428 0
	ldi r18,lo8(2)
	sts 192,r18
	.loc 1 429 0
	andi r25,127
.LVL15:
.L8:
	.loc 1 431 0
	sts 197,r25
	.loc 1 432 0
	sts 196,r24
	.loc 1 435 0
	ldi r24,lo8(-104)
.LVL16:
	sts 193,r24
	.loc 1 441 0
	ldi r24,lo8(6)
	sts 194,r24
	ret
	.cfi_endproc
.LFE3:
	.size	uart_init, .-uart_init
.global	uart_getc
	.type	uart_getc, @function
uart_getc:
.LFB4:
	.loc 1 469 0
	.cfi_startproc
/* prologue: function */
/* frame size = 0 */
/* stack size = 0 */
.L__stack_usage = 0
	.loc 1 474 0
	lds r25,UART_RxHead
	lds r24,UART_RxTail
	cp r25,r24
	breq .L11
	.loc 1 479 0
	lds r30,UART_RxTail
	subi r30,lo8(-(1))
	andi r30,lo8(31)
.LVL17:
	.loc 1 480 0
	sts UART_RxTail,r30
	.loc 1 483 0
	ldi r31,0
	subi r30,lo8(-(UART_RxBuf))
	sbci r31,hi8(-(UART_RxBuf))
.LVL18:
	ld r18,Z
.LVL19:
	.loc 1 485 0
	lds r24,UART_LastRxError
	ldi r25,0
	mov r25,r24
	clr r24
	add r24,r18
	adc r25,__zero_reg__
	ret
.LVL20:
.L11:
	.loc 1 475 0
	ldi r24,0
	ldi r25,lo8(1)
	.loc 1 487 0
	ret
	.cfi_endproc
.LFE4:
	.size	uart_getc, .-uart_getc
.global	uart_putc
	.type	uart_putc, @function
uart_putc:
.LFB5:
	.loc 1 497 0
	.cfi_startproc
.LVL21:
/* prologue: function */
/* frame size = 0 */
/* stack size = 0 */
.L__stack_usage = 0
	.loc 1 501 0
	lds r18,UART_TxHead
	subi r18,lo8(-(1))
	andi r18,lo8(31)
.LVL22:
.L14:
	.loc 1 503 0 discriminator 1
	lds r25,UART_TxTail
	cp r18,r25
	breq .L14
	.loc 1 507 0
	mov r30,r18
	ldi r31,0
	subi r30,lo8(-(UART_TxBuf))
	sbci r31,hi8(-(UART_TxBuf))
	st Z,r24
	.loc 1 508 0
	sts UART_TxHead,r18
	.loc 1 511 0
	ldi r30,lo8(-63)
	ldi r31,0
	ld r24,Z
.LVL23:
	ori r24,lo8(32)
	st Z,r24
	ret
	.cfi_endproc
.LFE5:
	.size	uart_putc, .-uart_putc
.global	uart_puts
	.type	uart_puts, @function
uart_puts:
.LFB6:
	.loc 1 523 0
	.cfi_startproc
.LVL24:
	push r28
.LCFI13:
	.cfi_def_cfa_offset 3
	.cfi_offset 28, -2
	push r29
.LCFI14:
	.cfi_def_cfa_offset 4
	.cfi_offset 29, -3
/* prologue: function */
/* frame size = 0 */
/* stack size = 2 */
.L__stack_usage = 2
	movw r28,r24
	.loc 1 524 0
	ld r24,Y
.LVL25:
	tst r24
	breq .L15
	adiw r28,1
.LVL26:
.L17:
	.loc 1 525 0
	call uart_putc
.LVL27:
	.loc 1 524 0
	ld r24,Y+
.LVL28:
	cpse r24,__zero_reg__
	rjmp .L17
.LVL29:
.L15:
/* epilogue start */
	.loc 1 527 0
	pop r29
	pop r28
	ret
	.cfi_endproc
.LFE6:
	.size	uart_puts, .-uart_puts
.global	uart_puts_p
	.type	uart_puts_p, @function
uart_puts_p:
.LFB7:
	.loc 1 537 0
	.cfi_startproc
.LVL30:
	push r28
.LCFI15:
	.cfi_def_cfa_offset 3
	.cfi_offset 28, -2
	push r29
.LCFI16:
	.cfi_def_cfa_offset 4
	.cfi_offset 29, -3
/* prologue: function */
/* frame size = 0 */
/* stack size = 2 */
.L__stack_usage = 2
.LBB2:
	.loc 1 540 0
	movw r28,r24
	adiw r28,1
.LVL31:
	movw r30,r24
/* #APP */
 ;  540 "../uart/uart.c" 1
	lpm r24, Z
	
 ;  0 "" 2
.LVL32:
/* #NOAPP */
.LBE2:
	tst r24
	breq .L18
.L20:
.LVL33:
	.loc 1 541 0
	call uart_putc
.LVL34:
.LBB3:
	.loc 1 540 0
	movw r30,r28
/* #APP */
 ;  540 "../uart/uart.c" 1
	lpm r24, Z
	
 ;  0 "" 2
.LVL35:
/* #NOAPP */
	adiw r28,1
.LVL36:
.LBE3:
	cpse r24,__zero_reg__
	rjmp .L20
.L18:
/* epilogue start */
	.loc 1 543 0
	pop r29
	pop r28
.LVL37:
	ret
	.cfi_endproc
.LFE7:
	.size	uart_puts_p, .-uart_puts_p
.global	uart_available
	.type	uart_available, @function
uart_available:
.LFB8:
	.loc 1 554 0
	.cfi_startproc
/* prologue: function */
/* frame size = 0 */
/* stack size = 0 */
.L__stack_usage = 0
	.loc 1 555 0
	lds r24,UART_RxHead
	lds r18,UART_RxTail
	ldi r25,0
	adiw r24,31
	sub r24,r18
	sbc r25,__zero_reg__
	ldi r22,lo8(31)
	ldi r23,0
	call __divmodhi4
	.loc 1 556 0
	ret
	.cfi_endproc
.LFE8:
	.size	uart_available, .-uart_available
.global	uart_flush
	.type	uart_flush, @function
uart_flush:
.LFB9:
	.loc 1 567 0
	.cfi_startproc
/* prologue: function */
/* frame size = 0 */
/* stack size = 0 */
.L__stack_usage = 0
	.loc 1 568 0
	lds r24,UART_RxTail
	sts UART_RxHead,r24
	ret
	.cfi_endproc
.LFE9:
	.size	uart_flush, .-uart_flush
	.local	UART_LastRxError
	.comm	UART_LastRxError,1,1
	.local	UART_RxTail
	.comm	UART_RxTail,1,1
	.local	UART_RxHead
	.comm	UART_RxHead,1,1
	.local	UART_TxTail
	.comm	UART_TxTail,1,1
	.local	UART_TxHead
	.comm	UART_TxHead,1,1
	.local	UART_RxBuf
	.comm	UART_RxBuf,32,1
	.local	UART_TxBuf
	.comm	UART_TxBuf,32,1
.Letext0:
	.file 2 "/avr8-gnu-toolchain-linux_x86/avr/include/stdint.h"