	.file	"uart_addon.c"
__SP_H__ = 0x3e
__SP_L__ = 0x3d
__SREG__ = 0x3f
__tmp_reg__ = 0
__zero_reg__ = 1
	.text
.Ltext0:
	.cfi_sections	.debug_frame
	.section	.text.uart_put_int,"ax",@progbits
.global	uart_put_int
	.type	uart_put_int, @function
uart_put_int:
.LFB4:
	.file 1 "../uart/uart_addon.c"
	.loc 1 27 0
	.cfi_startproc
.LVL0:
	push r28
.LCFI0:
	.cfi_def_cfa_offset 3
	.cfi_offset 28, -2
	push r29
.LCFI1:
	.cfi_def_cfa_offset 4
	.cfi_offset 29, -3
	in r28,__SP_L__
	in r29,__SP_H__
.LCFI2:
	.cfi_def_cfa_register 28
	sbiw r28,10
.LCFI3:
	.cfi_def_cfa_offset 14
	in __tmp_reg__,__SREG__
	cli
	out __SP_H__,r29
	out __SREG__,__tmp_reg__
	out __SP_L__,r28
/* prologue: function */
/* frame size = 10 */
/* stack size = 12 */
.L__stack_usage = 12
.LVL1:
.LBB6:
.LBB7:
	.file 2 "/AtmelAvrToolchain/avr/include/stdlib.h"
	.loc 2 428 0
	ldi r20,lo8(10)
	movw r22,r28
	subi r22,-1
	sbci r23,-1
	call __itoa_ncheck
.LVL2:
.LBE7:
.LBE6:
	.loc 1 29 0
	call uart_puts
.LVL3:
/* epilogue start */
	.loc 1 30 0
	adiw r28,10
	in __tmp_reg__,__SREG__
	cli
	out __SP_H__,r29
	out __SREG__,__tmp_reg__
	out __SP_L__,r28
	pop r29
	pop r28
	ret
	.cfi_endproc
.LFE4:
	.size	uart_put_int, .-uart_put_int
	.text
.Letext0:
	.file 3 "../uart/uart.h"